
apola001_Final_Project.elf:     file format elf32-avr

Sections:
Idx Name          Size      VMA       LMA       File off  Algn
  0 .data         00000010  00800100  000005ee  00000682  2**0
                  CONTENTS, ALLOC, LOAD, DATA
  1 .text         000005ee  00000000  00000000  00000094  2**1
                  CONTENTS, ALLOC, LOAD, READONLY, CODE
  2 .bss          0000003a  00800110  00800110  00000692  2**0
                  ALLOC
  3 .comment      00000030  00000000  00000000  00000692  2**0
                  CONTENTS, READONLY
  4 .debug_aranges 000000d0  00000000  00000000  000006c2  2**0
                  CONTENTS, READONLY, DEBUGGING
  5 .debug_info   000009bb  00000000  00000000  00000792  2**0
                  CONTENTS, READONLY, DEBUGGING
  6 .debug_abbrev 000002f0  00000000  00000000  0000114d  2**0
                  CONTENTS, READONLY, DEBUGGING
  7 .debug_line   000007b8  00000000  00000000  0000143d  2**0
                  CONTENTS, READONLY, DEBUGGING
  8 .debug_frame  000001dc  00000000  00000000  00001bf8  2**2
                  CONTENTS, READONLY, DEBUGGING
  9 .debug_str    000004a8  00000000  00000000  00001dd4  2**0
                  CONTENTS, READONLY, DEBUGGING
 10 .debug_loc    0000095c  00000000  00000000  0000227c  2**0
                  CONTENTS, READONLY, DEBUGGING
 11 .debug_ranges 000000c0  00000000  00000000  00002bd8  2**0
                  CONTENTS, READONLY, DEBUGGING

Disassembly of section .text:

00000000 <__vectors>:
   0:	45 c0       	rjmp	.+138    	; 0x8c <__ctors_end>
   2:	00 00       	nop
   4:	60 c0       	rjmp	.+192    	; 0xc6 <__bad_interrupt>
   6:	00 00       	nop
   8:	5e c0       	rjmp	.+188    	; 0xc6 <__bad_interrupt>
   a:	00 00       	nop
   c:	5c c0       	rjmp	.+184    	; 0xc6 <__bad_interrupt>
   e:	00 00       	nop
  10:	5a c0       	rjmp	.+180    	; 0xc6 <__bad_interrupt>
  12:	00 00       	nop
  14:	58 c0       	rjmp	.+176    	; 0xc6 <__bad_interrupt>
  16:	00 00       	nop
  18:	56 c0       	rjmp	.+172    	; 0xc6 <__bad_interrupt>
  1a:	00 00       	nop
  1c:	54 c0       	rjmp	.+168    	; 0xc6 <__bad_interrupt>
  1e:	00 00       	nop
  20:	52 c0       	rjmp	.+164    	; 0xc6 <__bad_interrupt>
  22:	00 00       	nop
  24:	50 c0       	rjmp	.+160    	; 0xc6 <__bad_interrupt>
  26:	00 00       	nop
  28:	4e c0       	rjmp	.+156    	; 0xc6 <__bad_interrupt>
  2a:	00 00       	nop
  2c:	4c c0       	rjmp	.+152    	; 0xc6 <__bad_interrupt>
  2e:	00 00       	nop
  30:	4a c0       	rjmp	.+148    	; 0xc6 <__bad_interrupt>
  32:	00 00       	nop
  34:	e3 c0       	rjmp	.+454    	; 0x1fc <__vector_13>
  36:	00 00       	nop
  38:	46 c0       	rjmp	.+140    	; 0xc6 <__bad_interrupt>
  3a:	00 00       	nop
  3c:	44 c0       	rjmp	.+136    	; 0xc6 <__bad_interrupt>
  3e:	00 00       	nop
  40:	42 c0       	rjmp	.+132    	; 0xc6 <__bad_interrupt>
  42:	00 00       	nop
  44:	40 c0       	rjmp	.+128    	; 0xc6 <__bad_interrupt>
  46:	00 00       	nop
  48:	3e c0       	rjmp	.+124    	; 0xc6 <__bad_interrupt>
  4a:	00 00       	nop
  4c:	3c c0       	rjmp	.+120    	; 0xc6 <__bad_interrupt>
  4e:	00 00       	nop
  50:	3a c0       	rjmp	.+116    	; 0xc6 <__bad_interrupt>
  52:	00 00       	nop
  54:	38 c0       	rjmp	.+112    	; 0xc6 <__bad_interrupt>
  56:	00 00       	nop
  58:	36 c0       	rjmp	.+108    	; 0xc6 <__bad_interrupt>
  5a:	00 00       	nop
  5c:	34 c0       	rjmp	.+104    	; 0xc6 <__bad_interrupt>
  5e:	00 00       	nop
  60:	32 c0       	rjmp	.+100    	; 0xc6 <__bad_interrupt>
  62:	00 00       	nop
  64:	30 c0       	rjmp	.+96     	; 0xc6 <__bad_interrupt>
  66:	00 00       	nop
  68:	2e c0       	rjmp	.+92     	; 0xc6 <__bad_interrupt>
  6a:	00 00       	nop
  6c:	2c c0       	rjmp	.+88     	; 0xc6 <__bad_interrupt>
  6e:	00 00       	nop
  70:	2a c0       	rjmp	.+84     	; 0xc6 <__bad_interrupt>
  72:	00 00       	nop
  74:	28 c0       	rjmp	.+80     	; 0xc6 <__bad_interrupt>
  76:	00 00       	nop
  78:	26 c0       	rjmp	.+76     	; 0xc6 <__bad_interrupt>
  7a:	00 00       	nop
  7c:	24 c0       	rjmp	.+72     	; 0xc6 <__bad_interrupt>
  7e:	00 00       	nop
  80:	22 c0       	rjmp	.+68     	; 0xc6 <__bad_interrupt>
  82:	00 00       	nop
  84:	20 c0       	rjmp	.+64     	; 0xc6 <__bad_interrupt>
  86:	00 00       	nop
  88:	1e c0       	rjmp	.+60     	; 0xc6 <__bad_interrupt>
	...

0000008c <__ctors_end>:
  8c:	11 24       	eor	r1, r1
  8e:	1f be       	out	0x3f, r1	; 63
  90:	cf ef       	ldi	r28, 0xFF	; 255
  92:	d0 e4       	ldi	r29, 0x40	; 64
  94:	de bf       	out	0x3e, r29	; 62
  96:	cd bf       	out	0x3d, r28	; 61

00000098 <__do_copy_data>:
  98:	11 e0       	ldi	r17, 0x01	; 1
  9a:	a0 e0       	ldi	r26, 0x00	; 0
  9c:	b1 e0       	ldi	r27, 0x01	; 1
  9e:	ee ee       	ldi	r30, 0xEE	; 238
  a0:	f5 e0       	ldi	r31, 0x05	; 5
  a2:	00 e0       	ldi	r16, 0x00	; 0
  a4:	0b bf       	out	0x3b, r16	; 59
  a6:	02 c0       	rjmp	.+4      	; 0xac <__do_copy_data+0x14>
  a8:	07 90       	elpm	r0, Z+
  aa:	0d 92       	st	X+, r0
  ac:	a0 31       	cpi	r26, 0x10	; 16
  ae:	b1 07       	cpc	r27, r17
  b0:	d9 f7       	brne	.-10     	; 0xa8 <__do_copy_data+0x10>

000000b2 <__do_clear_bss>:
  b2:	21 e0       	ldi	r18, 0x01	; 1
  b4:	a0 e1       	ldi	r26, 0x10	; 16
  b6:	b1 e0       	ldi	r27, 0x01	; 1
  b8:	01 c0       	rjmp	.+2      	; 0xbc <.do_clear_bss_start>

000000ba <.do_clear_bss_loop>:
  ba:	1d 92       	st	X+, r1

000000bc <.do_clear_bss_start>:
  bc:	aa 34       	cpi	r26, 0x4A	; 74
  be:	b2 07       	cpc	r27, r18
  c0:	e1 f7       	brne	.-8      	; 0xba <.do_clear_bss_loop>
  c2:	1f d1       	rcall	.+574    	; 0x302 <main>
  c4:	92 c2       	rjmp	.+1316   	; 0x5ea <_exit>

000000c6 <__bad_interrupt>:
  c6:	9c cf       	rjmp	.-200    	; 0x0 <__vectors>

000000c8 <SMTick1>:
        }
        a = b;
        b = c;
    }
    return 0;
}
  c8:	02 97       	sbiw	r24, 0x02	; 2
  ca:	18 f4       	brcc	.+6      	; 0xd2 <SMTick1+0xa>
  cc:	81 e0       	ldi	r24, 0x01	; 1
  ce:	90 e0       	ldi	r25, 0x00	; 0
  d0:	08 95       	ret
  d2:	80 e0       	ldi	r24, 0x00	; 0
  d4:	90 e0       	ldi	r25, 0x00	; 0
  d6:	08 95       	ret

000000d8 <SMTick3>:
  d8:	81 30       	cpi	r24, 0x01	; 1
  da:	91 05       	cpc	r25, r1
  dc:	71 f0       	breq	.+28     	; 0xfa <SMTick3+0x22>
  de:	1c f4       	brge	.+6      	; 0xe6 <SMTick3+0xe>
  e0:	89 2b       	or	r24, r25
  e2:	41 f0       	breq	.+16     	; 0xf4 <SMTick3+0x1c>
  e4:	38 c0       	rjmp	.+112    	; 0x156 <SMTick3+0x7e>
  e6:	82 30       	cpi	r24, 0x02	; 2
  e8:	91 05       	cpc	r25, r1
  ea:	19 f1       	breq	.+70     	; 0x132 <SMTick3+0x5a>
  ec:	83 30       	cpi	r24, 0x03	; 3
  ee:	91 05       	cpc	r25, r1
  f0:	49 f1       	breq	.+82     	; 0x144 <SMTick3+0x6c>
  f2:	31 c0       	rjmp	.+98     	; 0x156 <SMTick3+0x7e>
  f4:	81 e0       	ldi	r24, 0x01	; 1
  f6:	90 e0       	ldi	r25, 0x00	; 0
  f8:	08 95       	ret
  fa:	20 91 41 01 	lds	r18, 0x0141
  fe:	22 23       	and	r18, r18
 100:	51 f0       	breq	.+20     	; 0x116 <SMTick3+0x3e>
 102:	80 91 02 01 	lds	r24, 0x0102
 106:	88 23       	and	r24, r24
 108:	4c f1       	brlt	.+82     	; 0x15c <SMTick3+0x84>
 10a:	88 0f       	add	r24, r24
 10c:	80 93 02 01 	sts	0x0102, r24
 110:	82 e0       	ldi	r24, 0x02	; 2
 112:	90 e0       	ldi	r25, 0x00	; 0
 114:	08 95       	ret
 116:	20 91 40 01 	lds	r18, 0x0140
 11a:	22 23       	and	r18, r18
 11c:	51 f1       	breq	.+84     	; 0x172 <SMTick3+0x9a>
 11e:	80 91 02 01 	lds	r24, 0x0102
 122:	82 30       	cpi	r24, 0x02	; 2
 124:	f0 f0       	brcs	.+60     	; 0x162 <SMTick3+0x8a>
 126:	86 95       	lsr	r24
 128:	80 93 02 01 	sts	0x0102, r24
 12c:	83 e0       	ldi	r24, 0x03	; 3
 12e:	90 e0       	ldi	r25, 0x00	; 0
 130:	08 95       	ret
 132:	20 91 41 01 	lds	r18, 0x0141
 136:	21 11       	cpse	r18, r1
 138:	1c c0       	rjmp	.+56     	; 0x172 <SMTick3+0x9a>
 13a:	20 91 40 01 	lds	r18, 0x0140
 13e:	22 23       	and	r18, r18
 140:	99 f0       	breq	.+38     	; 0x168 <SMTick3+0x90>
 142:	08 95       	ret
 144:	20 91 41 01 	lds	r18, 0x0141
 148:	21 11       	cpse	r18, r1
 14a:	13 c0       	rjmp	.+38     	; 0x172 <SMTick3+0x9a>
 14c:	20 91 40 01 	lds	r18, 0x0140
 150:	22 23       	and	r18, r18
 152:	69 f0       	breq	.+26     	; 0x16e <SMTick3+0x96>
 154:	08 95       	ret
 156:	80 e0       	ldi	r24, 0x00	; 0
 158:	90 e0       	ldi	r25, 0x00	; 0
 15a:	08 95       	ret
 15c:	82 e0       	ldi	r24, 0x02	; 2
 15e:	90 e0       	ldi	r25, 0x00	; 0
 160:	08 95       	ret
 162:	83 e0       	ldi	r24, 0x03	; 3
 164:	90 e0       	ldi	r25, 0x00	; 0
 166:	08 95       	ret
 168:	81 e0       	ldi	r24, 0x01	; 1
 16a:	90 e0       	ldi	r25, 0x00	; 0
 16c:	08 95       	ret
 16e:	81 e0       	ldi	r24, 0x01	; 1
 170:	90 e0       	ldi	r25, 0x00	; 0
 172:	08 95       	ret

00000174 <SMTick4>:
 174:	02 97       	sbiw	r24, 0x02	; 2
 176:	e0 f4       	brcc	.+56     	; 0x1b0 <SMTick4+0x3c>
 178:	80 b1       	in	r24, 0x00	; 0
 17a:	80 95       	com	r24
 17c:	84 70       	andi	r24, 0x04	; 4
 17e:	80 93 44 01 	sts	0x0144, r24
 182:	80 b1       	in	r24, 0x00	; 0
 184:	80 95       	com	r24
 186:	88 70       	andi	r24, 0x08	; 8
 188:	80 93 43 01 	sts	0x0143, r24
 18c:	80 b1       	in	r24, 0x00	; 0
 18e:	80 95       	com	r24
 190:	80 71       	andi	r24, 0x10	; 16
 192:	80 93 42 01 	sts	0x0142, r24
 196:	80 b1       	in	r24, 0x00	; 0
 198:	80 95       	com	r24
 19a:	80 72       	andi	r24, 0x20	; 32
 19c:	80 93 41 01 	sts	0x0141, r24
 1a0:	80 b1       	in	r24, 0x00	; 0
 1a2:	80 95       	com	r24
 1a4:	80 74       	andi	r24, 0x40	; 64
 1a6:	80 93 40 01 	sts	0x0140, r24
 1aa:	81 e0       	ldi	r24, 0x01	; 1
 1ac:	90 e0       	ldi	r25, 0x00	; 0
 1ae:	08 95       	ret
 1b0:	80 e0       	ldi	r24, 0x00	; 0
 1b2:	90 e0       	ldi	r25, 0x00	; 0
 1b4:	08 95       	ret

000001b6 <TimerOn>:
 1b6:	8b e0       	ldi	r24, 0x0B	; 11
 1b8:	80 93 81 00 	sts	0x0081, r24
 1bc:	8d e7       	ldi	r24, 0x7D	; 125
 1be:	90 e0       	ldi	r25, 0x00	; 0
 1c0:	90 93 89 00 	sts	0x0089, r25
 1c4:	80 93 88 00 	sts	0x0088, r24
 1c8:	82 e0       	ldi	r24, 0x02	; 2
 1ca:	80 93 6f 00 	sts	0x006F, r24
 1ce:	10 92 85 00 	sts	0x0085, r1
 1d2:	10 92 84 00 	sts	0x0084, r1
 1d6:	80 91 03 01 	lds	r24, 0x0103
 1da:	90 91 04 01 	lds	r25, 0x0104
 1de:	a0 91 05 01 	lds	r26, 0x0105
 1e2:	b0 91 06 01 	lds	r27, 0x0106
 1e6:	80 93 45 01 	sts	0x0145, r24
 1ea:	90 93 46 01 	sts	0x0146, r25
 1ee:	a0 93 47 01 	sts	0x0147, r26
 1f2:	b0 93 48 01 	sts	0x0148, r27
 1f6:	80 e8       	ldi	r24, 0x80	; 128
 1f8:	8f bf       	out	0x3f, r24	; 63
 1fa:	08 95       	ret

000001fc <__vector_13>:
 1fc:	1f 92       	push	r1
 1fe:	0f 92       	push	r0
 200:	0f b6       	in	r0, 0x3f	; 63
 202:	0f 92       	push	r0
 204:	11 24       	eor	r1, r1
 206:	8f 93       	push	r24
 208:	9f 93       	push	r25
 20a:	af 93       	push	r26
 20c:	bf 93       	push	r27
 20e:	80 91 45 01 	lds	r24, 0x0145
 212:	90 91 46 01 	lds	r25, 0x0146
 216:	a0 91 47 01 	lds	r26, 0x0147
 21a:	b0 91 48 01 	lds	r27, 0x0148
 21e:	01 97       	sbiw	r24, 0x01	; 1
 220:	a1 09       	sbc	r26, r1
 222:	b1 09       	sbc	r27, r1
 224:	80 93 45 01 	sts	0x0145, r24
 228:	90 93 46 01 	sts	0x0146, r25
 22c:	a0 93 47 01 	sts	0x0147, r26
 230:	b0 93 48 01 	sts	0x0148, r27
 234:	89 2b       	or	r24, r25
 236:	8a 2b       	or	r24, r26
 238:	8b 2b       	or	r24, r27
 23a:	99 f4       	brne	.+38     	; 0x262 <__vector_13+0x66>
 23c:	81 e0       	ldi	r24, 0x01	; 1
 23e:	80 93 49 01 	sts	0x0149, r24
 242:	80 91 03 01 	lds	r24, 0x0103
 246:	90 91 04 01 	lds	r25, 0x0104
 24a:	a0 91 05 01 	lds	r26, 0x0105
 24e:	b0 91 06 01 	lds	r27, 0x0106
 252:	80 93 45 01 	sts	0x0145, r24
 256:	90 93 46 01 	sts	0x0146, r25
 25a:	a0 93 47 01 	sts	0x0147, r26
 25e:	b0 93 48 01 	sts	0x0148, r27
 262:	bf 91       	pop	r27
 264:	af 91       	pop	r26
 266:	9f 91       	pop	r25
 268:	8f 91       	pop	r24
 26a:	0f 90       	pop	r0
 26c:	0f be       	out	0x3f, r0	; 63
 26e:	0f 90       	pop	r0
 270:	1f 90       	pop	r1
 272:	18 95       	reti

00000274 <transmit_data_cols>:

void transmit_data_cols(unsigned char data) {
    int i;
    for (i = 0; i < 8 ; ++i) {
 274:	20 e0       	ldi	r18, 0x00	; 0
 276:	30 e0       	ldi	r19, 0x00	; 0
        // Sets SRCLR to 1 allowing data to be set
        // Also clears SRCLK in preparation of sending data
        PORTB = 0x08;
 278:	78 e0       	ldi	r23, 0x08	; 8
        // set SER = next bit of data to be sent.
        PORTB |= ((data >> i) & 0x01);
 27a:	90 e0       	ldi	r25, 0x00	; 0
void transmit_data_cols(unsigned char data) {
    int i;
    for (i = 0; i < 8 ; ++i) {
        // Sets SRCLR to 1 allowing data to be set
        // Also clears SRCLK in preparation of sending data
        PORTB = 0x08;
 27c:	75 b9       	out	0x05, r23	; 5
        // set SER = next bit of data to be sent.
        PORTB |= ((data >> i) & 0x01);
 27e:	65 b1       	in	r22, 0x05	; 5
 280:	ac 01       	movw	r20, r24
 282:	02 2e       	mov	r0, r18
 284:	02 c0       	rjmp	.+4      	; 0x28a <transmit_data_cols+0x16>
 286:	55 95       	asr	r21
 288:	47 95       	ror	r20
 28a:	0a 94       	dec	r0
 28c:	e2 f7       	brpl	.-8      	; 0x286 <transmit_data_cols+0x12>
 28e:	41 70       	andi	r20, 0x01	; 1
 290:	46 2b       	or	r20, r22
 292:	45 b9       	out	0x05, r20	; 5
        // set SRCLK = 1. Rising edge shifts next bit of data into the shift register
        PORTB |= 0x02;
 294:	29 9a       	sbi	0x05, 1	; 5
    return 0;
}

void transmit_data_cols(unsigned char data) {
    int i;
    for (i = 0; i < 8 ; ++i) {
 296:	2f 5f       	subi	r18, 0xFF	; 255
 298:	3f 4f       	sbci	r19, 0xFF	; 255
 29a:	28 30       	cpi	r18, 0x08	; 8
 29c:	31 05       	cpc	r19, r1
 29e:	71 f7       	brne	.-36     	; 0x27c <transmit_data_cols+0x8>
        PORTB |= ((data >> i) & 0x01);
        // set SRCLK = 1. Rising edge shifts next bit of data into the shift register
        PORTB |= 0x02;
    }
    // set RCLK = 1. Rising edge copies data from “Shift” register to “Storage” register
    PORTB |= 0x04;
 2a0:	2a 9a       	sbi	0x05, 2	; 5
    // clears all lines in preparation of a new transmission
    PORTB = 0x00;
 2a2:	15 b8       	out	0x05, r1	; 5
 2a4:	08 95       	ret

000002a6 <transmit_data_rows>:
}

void transmit_data_rows(unsigned char data) {
    int i;
    for (i = 0; i < 8 ; ++i) {
 2a6:	20 e0       	ldi	r18, 0x00	; 0
 2a8:	30 e0       	ldi	r19, 0x00	; 0
        // Sets SRCLR to 1 allowing data to be set
        // Also clears SRCLK in preparation of sending data
        PORTC = 0x08;
 2aa:	78 e0       	ldi	r23, 0x08	; 8
        // set SER = next bit of data to be sent.
        PORTC |= ((data >> i) & 0x01);
 2ac:	90 e0       	ldi	r25, 0x00	; 0
void transmit_data_rows(unsigned char data) {
    int i;
    for (i = 0; i < 8 ; ++i) {
        // Sets SRCLR to 1 allowing data to be set
        // Also clears SRCLK in preparation of sending data
        PORTC = 0x08;
 2ae:	78 b9       	out	0x08, r23	; 8
        // set SER = next bit of data to be sent.
        PORTC |= ((data >> i) & 0x01);
 2b0:	68 b1       	in	r22, 0x08	; 8
 2b2:	ac 01       	movw	r20, r24
 2b4:	02 2e       	mov	r0, r18
 2b6:	02 c0       	rjmp	.+4      	; 0x2bc <transmit_data_rows+0x16>
 2b8:	55 95       	asr	r21
 2ba:	47 95       	ror	r20
 2bc:	0a 94       	dec	r0
 2be:	e2 f7       	brpl	.-8      	; 0x2b8 <transmit_data_rows+0x12>
 2c0:	41 70       	andi	r20, 0x01	; 1
 2c2:	46 2b       	or	r20, r22
 2c4:	48 b9       	out	0x08, r20	; 8
        // set SRCLK = 1. Rising edge shifts next bit of data into the shift register
        PORTC |= 0x02;
 2c6:	41 9a       	sbi	0x08, 1	; 8
    PORTB = 0x00;
}

void transmit_data_rows(unsigned char data) {
    int i;
    for (i = 0; i < 8 ; ++i) {
 2c8:	2f 5f       	subi	r18, 0xFF	; 255
 2ca:	3f 4f       	sbci	r19, 0xFF	; 255
 2cc:	28 30       	cpi	r18, 0x08	; 8
 2ce:	31 05       	cpc	r19, r1
 2d0:	71 f7       	brne	.-36     	; 0x2ae <transmit_data_rows+0x8>
        PORTC |= ((data >> i) & 0x01);
        // set SRCLK = 1. Rising edge shifts next bit of data into the shift register
        PORTC |= 0x02;
    }
    // set RCLK = 1. Rising edge copies data from “Shift” register to “Storage” register
    PORTC |= 0x04;
 2d2:	42 9a       	sbi	0x08, 2	; 8
    // clears all lines in preparation of a new transmission
    PORTC = 0x00;
 2d4:	18 b8       	out	0x08, r1	; 8
 2d6:	08 95       	ret

000002d8 <SMTick2>:
}

enum SM2_States { SM2_init, SM2_display };

int SMTick2(int state){
    switch(state){
 2d8:	89 2b       	or	r24, r25
 2da:	81 f4       	brne	.+32     	; 0x2fc <SMTick2+0x24>
    }
    switch (state){
        case SM2_init:
            break;
        case SM2_display:
            row_g = 1;
 2dc:	81 e0       	ldi	r24, 0x01	; 1
 2de:	80 93 00 01 	sts	0x0100, r24
            col_g = ~(player_pos_g);
 2e2:	80 91 02 01 	lds	r24, 0x0102
 2e6:	80 95       	com	r24
 2e8:	80 93 01 01 	sts	0x0101, r24
            transmit_data_rows(row_g);
 2ec:	81 e0       	ldi	r24, 0x01	; 1
 2ee:	db df       	rcall	.-74     	; 0x2a6 <transmit_data_rows>
            transmit_data_cols(col_g);
 2f0:	80 91 01 01 	lds	r24, 0x0101
 2f4:	bf df       	rcall	.-130    	; 0x274 <transmit_data_cols>

int SMTick2(int state){
    switch(state){
        case SM2_init:
            state = SM2_display;
            state = SM2_display;
 2f6:	81 e0       	ldi	r24, 0x01	; 1
 2f8:	90 e0       	ldi	r25, 0x00	; 0
        case SM2_display:
            row_g = 1;
            col_g = ~(player_pos_g);
            transmit_data_rows(row_g);
            transmit_data_cols(col_g);
            break;
 2fa:	08 95       	ret
        case SM2_init:
            state = SM2_display;
            state = SM2_display;
            break;
        default:
            state = SM2_init;
 2fc:	80 e0       	ldi	r24, 0x00	; 0
 2fe:	90 e0       	ldi	r25, 0x00	; 0
            break;
        default:
            break;
    }
    return state;
}
 300:	08 95       	ret

00000302 <main>:
    return state;
}

enum SM5_States{SM5_init, SM5_LED_off, SM5_LED_on};

int main(void){
 302:	cf 93       	push	r28
 304:	df 93       	push	r29
 306:	cd b7       	in	r28, 0x3d	; 61
 308:	de b7       	in	r29, 0x3e	; 62
 30a:	28 97       	sbiw	r28, 0x08	; 8
 30c:	0f b6       	in	r0, 0x3f	; 63
 30e:	f8 94       	cli
 310:	de bf       	out	0x3e, r29	; 62
 312:	0f be       	out	0x3f, r0	; 63
 314:	cd bf       	out	0x3d, r28	; 61
    
    DDRA = 0x03; PORTA = 0xFC; // LCD Control Lines
 316:	83 e0       	ldi	r24, 0x03	; 3
 318:	81 b9       	out	0x01, r24	; 1
 31a:	8c ef       	ldi	r24, 0xFC	; 252
 31c:	82 b9       	out	0x02, r24	; 2
    DDRB = 0xFF; PORTB = 0x00;
 31e:	8f ef       	ldi	r24, 0xFF	; 255
 320:	84 b9       	out	0x04, r24	; 4
 322:	15 b8       	out	0x05, r1	; 5
    DDRC = 0x0F; PORTC = 0xF0; // Keypad Input
 324:	9f e0       	ldi	r25, 0x0F	; 15
 326:	97 b9       	out	0x07, r25	; 7
 328:	90 ef       	ldi	r25, 0xF0	; 240
 32a:	98 b9       	out	0x08, r25	; 8
    DDRD = 0xFF; PORTD = 0x00; // LCD Data lines
 32c:	8a b9       	out	0x0a, r24	; 10
 32e:	1b b8       	out	0x0b, r1	; 11
 330:	0f 2e       	mov	r0, r31
 332:	fb e4       	ldi	r31, 0x4B	; 75
 334:	ef 2e       	mov	r14, r31
 336:	f0 2d       	mov	r31, r0
 338:	f1 2c       	mov	r15, r1
 33a:	00 e0       	ldi	r16, 0x00	; 0
 33c:	10 e0       	ldi	r17, 0x00	; 0
 33e:	52 e3       	ldi	r21, 0x32	; 50
 340:	40 e0       	ldi	r20, 0x00	; 0
 342:	30 e0       	ldi	r19, 0x00	; 0
 344:	20 e0       	ldi	r18, 0x00	; 0
unsigned long int findGCD(unsigned long a,
                          unsigned long b)
{
    unsigned long int c;
    while(1){
        c = a%b;
 346:	65 2f       	mov	r22, r21
 348:	74 2f       	mov	r23, r20
 34a:	83 2f       	mov	r24, r19
 34c:	92 2f       	mov	r25, r18
 34e:	2e 2d       	mov	r18, r14
 350:	3f 2d       	mov	r19, r15
 352:	40 2f       	mov	r20, r16
 354:	51 2f       	mov	r21, r17
 356:	27 d1       	rcall	.+590    	; 0x5a6 <__udivmodsi4>
        if(c == 0){
 358:	61 15       	cp	r22, r1
 35a:	71 05       	cpc	r23, r1
 35c:	81 05       	cpc	r24, r1
 35e:	91 05       	cpc	r25, r1
 360:	49 f0       	breq	.+18     	; 0x374 <main+0x72>
 362:	5e 2d       	mov	r21, r14
 364:	4f 2d       	mov	r20, r15
 366:	30 2f       	mov	r19, r16
 368:	21 2f       	mov	r18, r17
            return b;
        }
        a = b;
        b = c;
 36a:	e6 2e       	mov	r14, r22
 36c:	f7 2e       	mov	r15, r23
 36e:	08 2f       	mov	r16, r24
 370:	19 2f       	mov	r17, r25
 372:	e9 cf       	rjmp	.-46     	; 0x346 <main+0x44>
                          unsigned long b)
{
    unsigned long int c;
    while(1){
        c = a%b;
        if(c == 0){
 374:	52 e3       	ldi	r21, 0x32	; 50
 376:	40 e0       	ldi	r20, 0x00	; 0
 378:	30 e0       	ldi	r19, 0x00	; 0
 37a:	20 e0       	ldi	r18, 0x00	; 0
unsigned long int findGCD(unsigned long a,
                          unsigned long b)
{
    unsigned long int c;
    while(1){
        c = a%b;
 37c:	65 2f       	mov	r22, r21
 37e:	74 2f       	mov	r23, r20
 380:	83 2f       	mov	r24, r19
 382:	92 2f       	mov	r25, r18
 384:	2e 2d       	mov	r18, r14
 386:	3f 2d       	mov	r19, r15
 388:	40 2f       	mov	r20, r16
 38a:	51 2f       	mov	r21, r17
 38c:	0c d1       	rcall	.+536    	; 0x5a6 <__udivmodsi4>
        if(c == 0){
 38e:	61 15       	cp	r22, r1
 390:	71 05       	cpc	r23, r1
 392:	81 05       	cpc	r24, r1
 394:	91 05       	cpc	r25, r1
 396:	49 f0       	breq	.+18     	; 0x3aa <main+0xa8>
 398:	5e 2d       	mov	r21, r14
 39a:	4f 2d       	mov	r20, r15
 39c:	30 2f       	mov	r19, r16
 39e:	21 2f       	mov	r18, r17
            return b;
        }
        a = b;
        b = c;
 3a0:	e6 2e       	mov	r14, r22
 3a2:	f7 2e       	mov	r15, r23
 3a4:	08 2f       	mov	r16, r24
 3a6:	19 2f       	mov	r17, r25
 3a8:	e9 cf       	rjmp	.-46     	; 0x37c <main+0x7a>
                          unsigned long b)
{
    unsigned long int c;
    while(1){
        c = a%b;
        if(c == 0){
 3aa:	52 e3       	ldi	r21, 0x32	; 50
 3ac:	40 e0       	ldi	r20, 0x00	; 0
 3ae:	30 e0       	ldi	r19, 0x00	; 0
 3b0:	20 e0       	ldi	r18, 0x00	; 0
unsigned long int findGCD(unsigned long a,
                          unsigned long b)
{
    unsigned long int c;
    while(1){
        c = a%b;
 3b2:	65 2f       	mov	r22, r21
 3b4:	74 2f       	mov	r23, r20
 3b6:	83 2f       	mov	r24, r19
 3b8:	92 2f       	mov	r25, r18
 3ba:	2e 2d       	mov	r18, r14
 3bc:	3f 2d       	mov	r19, r15
 3be:	40 2f       	mov	r20, r16
 3c0:	51 2f       	mov	r21, r17
 3c2:	f1 d0       	rcall	.+482    	; 0x5a6 <__udivmodsi4>
        if(c == 0){
 3c4:	61 15       	cp	r22, r1
 3c6:	71 05       	cpc	r23, r1
 3c8:	81 05       	cpc	r24, r1
 3ca:	91 05       	cpc	r25, r1
 3cc:	49 f0       	breq	.+18     	; 0x3e0 <main+0xde>
 3ce:	5e 2d       	mov	r21, r14
 3d0:	4f 2d       	mov	r20, r15
 3d2:	30 2f       	mov	r19, r16
 3d4:	21 2f       	mov	r18, r17
            return b;
        }
        a = b;
        b = c;
 3d6:	e6 2e       	mov	r14, r22
 3d8:	f7 2e       	mov	r15, r23
 3da:	08 2f       	mov	r16, r24
 3dc:	19 2f       	mov	r17, r25
 3de:	e9 cf       	rjmp	.-46     	; 0x3b2 <main+0xb0>
    tmpGCD = findGCD(SMTick4_calc, tmpGCD);
    tmpGCD = findGCD(SMTick5_calc, tmpGCD);
    
    unsigned long int GCD = tmpGCD;
     
    unsigned long int SMTick1_period = SMTick1_calc/GCD;
 3e0:	6b e4       	ldi	r22, 0x4B	; 75
 3e2:	70 e0       	ldi	r23, 0x00	; 0
 3e4:	80 e0       	ldi	r24, 0x00	; 0
 3e6:	90 e0       	ldi	r25, 0x00	; 0
 3e8:	2e 2d       	mov	r18, r14
 3ea:	3f 2d       	mov	r19, r15
 3ec:	40 2f       	mov	r20, r16
 3ee:	51 2f       	mov	r21, r17
 3f0:	da d0       	rcall	.+436    	; 0x5a6 <__udivmodsi4>
 3f2:	49 01       	movw	r8, r18
 3f4:	5a 01       	movw	r10, r20
    unsigned long int SMTick2_period = SMTick2_calc/GCD;
    unsigned long int SMTick3_period = SMTick3_calc/GCD;
 3f6:	62 e3       	ldi	r22, 0x32	; 50
 3f8:	70 e0       	ldi	r23, 0x00	; 0
 3fa:	80 e0       	ldi	r24, 0x00	; 0
 3fc:	90 e0       	ldi	r25, 0x00	; 0
 3fe:	2e 2d       	mov	r18, r14
 400:	3f 2d       	mov	r19, r15
 402:	40 2f       	mov	r20, r16
 404:	51 2f       	mov	r21, r17
 406:	cf d0       	rcall	.+414    	; 0x5a6 <__udivmodsi4>
    unsigned long int SMTick4_period = SMTick4_calc/GCD;
    
    //Array of task pointers...
    static task task1, task2, task3, task4;
    task *tasks[] = {&task1, &task2, &task3, &task4};
 408:	88 e0       	ldi	r24, 0x08	; 8
 40a:	e7 e0       	ldi	r30, 0x07	; 7
 40c:	f1 e0       	ldi	r31, 0x01	; 1
 40e:	de 01       	movw	r26, r28
 410:	11 96       	adiw	r26, 0x01	; 1
 412:	01 90       	ld	r0, Z+
 414:	0d 92       	st	X+, r0
 416:	8a 95       	dec	r24
 418:	e1 f7       	brne	.-8      	; 0x412 <main+0x110>
    const unsigned short numTasks =
    sizeof(tasks)/sizeof(task*);
    
    //Initializing the task components
    task1.state = -1;
 41a:	8f ef       	ldi	r24, 0xFF	; 255
 41c:	9f ef       	ldi	r25, 0xFF	; 255
 41e:	90 93 35 01 	sts	0x0135, r25
 422:	80 93 34 01 	sts	0x0134, r24
    task1.period = SMTick1_period;
 426:	80 92 36 01 	sts	0x0136, r8
 42a:	90 92 37 01 	sts	0x0137, r9
 42e:	a0 92 38 01 	sts	0x0138, r10
 432:	b0 92 39 01 	sts	0x0139, r11
    task1.elapsedTime = SMTick1_period;
 436:	80 92 3a 01 	sts	0x013A, r8
 43a:	90 92 3b 01 	sts	0x013B, r9
 43e:	a0 92 3c 01 	sts	0x013C, r10
 442:	b0 92 3d 01 	sts	0x013D, r11
    task1.TickFct = &SMTick1;
 446:	64 e6       	ldi	r22, 0x64	; 100
 448:	70 e0       	ldi	r23, 0x00	; 0
 44a:	70 93 3f 01 	sts	0x013F, r23
 44e:	60 93 3e 01 	sts	0x013E, r22
    
    task2.state = -1;
 452:	90 93 29 01 	sts	0x0129, r25
 456:	80 93 28 01 	sts	0x0128, r24
    task2.period = SMTick2_period;
 45a:	80 92 2a 01 	sts	0x012A, r8
 45e:	90 92 2b 01 	sts	0x012B, r9
 462:	a0 92 2c 01 	sts	0x012C, r10
 466:	b0 92 2d 01 	sts	0x012D, r11
    task2.elapsedTime = SMTick2_period;
 46a:	80 92 2e 01 	sts	0x012E, r8
 46e:	90 92 2f 01 	sts	0x012F, r9
 472:	a0 92 30 01 	sts	0x0130, r10
 476:	b0 92 31 01 	sts	0x0131, r11
    task2.TickFct = &SMTick2;
 47a:	6c e6       	ldi	r22, 0x6C	; 108
 47c:	71 e0       	ldi	r23, 0x01	; 1
 47e:	70 93 33 01 	sts	0x0133, r23
 482:	60 93 32 01 	sts	0x0132, r22
    
    task3.state = -1;
 486:	90 93 1d 01 	sts	0x011D, r25
 48a:	80 93 1c 01 	sts	0x011C, r24
    task3.period = SMTick3_period;
 48e:	20 93 1e 01 	sts	0x011E, r18
 492:	30 93 1f 01 	sts	0x011F, r19
 496:	40 93 20 01 	sts	0x0120, r20
 49a:	50 93 21 01 	sts	0x0121, r21
    task3.elapsedTime = SMTick3_period;
 49e:	20 93 22 01 	sts	0x0122, r18
 4a2:	30 93 23 01 	sts	0x0123, r19
 4a6:	40 93 24 01 	sts	0x0124, r20
 4aa:	50 93 25 01 	sts	0x0125, r21
    task3.TickFct = &SMTick3;
 4ae:	6c e6       	ldi	r22, 0x6C	; 108
 4b0:	70 e0       	ldi	r23, 0x00	; 0
 4b2:	70 93 27 01 	sts	0x0127, r23
 4b6:	60 93 26 01 	sts	0x0126, r22
    
    task4.state = -1;
 4ba:	90 93 11 01 	sts	0x0111, r25
 4be:	80 93 10 01 	sts	0x0110, r24
    task4.period = SMTick4_period;
 4c2:	20 93 12 01 	sts	0x0112, r18
 4c6:	30 93 13 01 	sts	0x0113, r19
 4ca:	40 93 14 01 	sts	0x0114, r20
 4ce:	50 93 15 01 	sts	0x0115, r21
    task4.elapsedTime = SMTick4_period;
 4d2:	20 93 16 01 	sts	0x0116, r18
 4d6:	30 93 17 01 	sts	0x0117, r19
 4da:	40 93 18 01 	sts	0x0118, r20
 4de:	50 93 19 01 	sts	0x0119, r21
    task4.TickFct = &SMTick4;
 4e2:	8a eb       	ldi	r24, 0xBA	; 186
 4e4:	90 e0       	ldi	r25, 0x00	; 0
 4e6:	90 93 1b 01 	sts	0x011B, r25
 4ea:	80 93 1a 01 	sts	0x011A, r24
        _avr_timer_cntcurr = _avr_timer_M;
    }
}

void TimerSet(unsigned long M){
    _avr_timer_M = M;
 4ee:	e0 92 03 01 	sts	0x0103, r14
 4f2:	f0 92 04 01 	sts	0x0104, r15
 4f6:	00 93 05 01 	sts	0x0105, r16
 4fa:	10 93 06 01 	sts	0x0106, r17
    _avr_timer_cntcurr = _avr_timer_M;
 4fe:	e0 92 45 01 	sts	0x0145, r14
 502:	f0 92 46 01 	sts	0x0146, r15
 506:	00 93 47 01 	sts	0x0147, r16
 50a:	10 93 48 01 	sts	0x0148, r17
    
    TimerSet(GCD);
    //5LCD_init();
    TimerOn();
 50e:	53 de       	rcall	.-858    	; 0x1b6 <TimerOn>
    //transmit_data_cols(255);
    unsigned short i;
    
    while(1){
        for(i = 0; i < numTasks; ++i){
 510:	00 e0       	ldi	r16, 0x00	; 0
 512:	10 e0       	ldi	r17, 0x00	; 0
 514:	c1 2c       	mov	r12, r1
 516:	d1 2c       	mov	r13, r1
 518:	3a c0       	rjmp	.+116    	; 0x58e <main+0x28c>
            if(tasks[i]->elapsedTime ==
 51a:	f8 01       	movw	r30, r16
 51c:	ee 0f       	add	r30, r30
 51e:	ff 1f       	adc	r31, r31
 520:	81 e0       	ldi	r24, 0x01	; 1
 522:	90 e0       	ldi	r25, 0x00	; 0
 524:	8c 0f       	add	r24, r28
 526:	9d 1f       	adc	r25, r29
 528:	e8 0f       	add	r30, r24
 52a:	f9 1f       	adc	r31, r25
 52c:	e0 80       	ld	r14, Z
 52e:	f1 80       	ldd	r15, Z+1	; 0x01
 530:	d7 01       	movw	r26, r14
 532:	16 96       	adiw	r26, 0x06	; 6
 534:	4d 91       	ld	r20, X+
 536:	5d 91       	ld	r21, X+
 538:	6d 91       	ld	r22, X+
 53a:	7c 91       	ld	r23, X
 53c:	19 97       	sbiw	r26, 0x09	; 9
 53e:	12 96       	adiw	r26, 0x02	; 2
 540:	8d 91       	ld	r24, X+
 542:	9d 91       	ld	r25, X+
 544:	0d 90       	ld	r0, X+
 546:	bc 91       	ld	r27, X
 548:	a0 2d       	mov	r26, r0
 54a:	48 17       	cp	r20, r24
 54c:	59 07       	cpc	r21, r25
 54e:	6a 07       	cpc	r22, r26
 550:	7b 07       	cpc	r23, r27
 552:	79 f4       	brne	.+30     	; 0x572 <main+0x270>
               tasks[i]->period){
                   tasks[i]->state = 
                        tasks[i]->TickFct(tasks[i]->state);
 554:	d7 01       	movw	r26, r14
 556:	1a 96       	adiw	r26, 0x0a	; 10
 558:	ed 91       	ld	r30, X+
 55a:	fc 91       	ld	r31, X
 55c:	1b 97       	sbiw	r26, 0x0b	; 11
 55e:	8d 91       	ld	r24, X+
 560:	9c 91       	ld	r25, X
 562:	09 95       	icall
    
    while(1){
        for(i = 0; i < numTasks; ++i){
            if(tasks[i]->elapsedTime ==
               tasks[i]->period){
                   tasks[i]->state = 
 564:	f7 01       	movw	r30, r14
 566:	91 83       	std	Z+1, r25	; 0x01
 568:	80 83       	st	Z, r24
                        tasks[i]->TickFct(tasks[i]->state);
                   tasks[i]->elapsedTime = 0;
 56a:	16 82       	std	Z+6, r1	; 0x06
 56c:	17 82       	std	Z+7, r1	; 0x07
 56e:	10 86       	std	Z+8, r1	; 0x08
 570:	11 86       	std	Z+9, r1	; 0x09
              }
               tasks[i]->elapsedTime += 1;
 572:	f7 01       	movw	r30, r14
 574:	86 81       	ldd	r24, Z+6	; 0x06
 576:	97 81       	ldd	r25, Z+7	; 0x07
 578:	a0 85       	ldd	r26, Z+8	; 0x08
 57a:	b1 85       	ldd	r27, Z+9	; 0x09
 57c:	01 96       	adiw	r24, 0x01	; 1
 57e:	a1 1d       	adc	r26, r1
 580:	b1 1d       	adc	r27, r1
 582:	86 83       	std	Z+6, r24	; 0x06
 584:	97 83       	std	Z+7, r25	; 0x07
 586:	a0 87       	std	Z+8, r26	; 0x08
 588:	b1 87       	std	Z+9, r27	; 0x09
    TimerOn();
    //transmit_data_cols(255);
    unsigned short i;
    
    while(1){
        for(i = 0; i < numTasks; ++i){
 58a:	0f 5f       	subi	r16, 0xFF	; 255
 58c:	1f 4f       	sbci	r17, 0xFF	; 255
 58e:	04 30       	cpi	r16, 0x04	; 4
 590:	11 05       	cpc	r17, r1
 592:	18 f2       	brcs	.-122    	; 0x51a <main+0x218>
                        tasks[i]->TickFct(tasks[i]->state);
                   tasks[i]->elapsedTime = 0;
              }
               tasks[i]->elapsedTime += 1;
        }
         while(!TimerFlag);
 594:	80 91 49 01 	lds	r24, 0x0149
 598:	88 23       	and	r24, r24
 59a:	e1 f3       	breq	.-8      	; 0x594 <main+0x292>
        TimerFlag = 0;
 59c:	10 92 49 01 	sts	0x0149, r1
    TimerOn();
    //transmit_data_cols(255);
    unsigned short i;
    
    while(1){
        for(i = 0; i < numTasks; ++i){
 5a0:	0c 2d       	mov	r16, r12
 5a2:	1d 2d       	mov	r17, r13
              }
               tasks[i]->elapsedTime += 1;
        }
         while(!TimerFlag);
        TimerFlag = 0;
    }
 5a4:	f4 cf       	rjmp	.-24     	; 0x58e <main+0x28c>

000005a6 <__udivmodsi4>:
 5a6:	a1 e2       	ldi	r26, 0x21	; 33
 5a8:	1a 2e       	mov	r1, r26
 5aa:	aa 1b       	sub	r26, r26
 5ac:	bb 1b       	sub	r27, r27
 5ae:	fd 01       	movw	r30, r26
 5b0:	0d c0       	rjmp	.+26     	; 0x5cc <__udivmodsi4_ep>

000005b2 <__udivmodsi4_loop>:
 5b2:	aa 1f       	adc	r26, r26
 5b4:	bb 1f       	adc	r27, r27
 5b6:	ee 1f       	adc	r30, r30
 5b8:	ff 1f       	adc	r31, r31
 5ba:	a2 17       	cp	r26, r18
 5bc:	b3 07       	cpc	r27, r19
 5be:	e4 07       	cpc	r30, r20
 5c0:	f5 07       	cpc	r31, r21
 5c2:	20 f0       	brcs	.+8      	; 0x5cc <__udivmodsi4_ep>
 5c4:	a2 1b       	sub	r26, r18
 5c6:	b3 0b       	sbc	r27, r19
 5c8:	e4 0b       	sbc	r30, r20
 5ca:	f5 0b       	sbc	r31, r21

000005cc <__udivmodsi4_ep>:
 5cc:	66 1f       	adc	r22, r22
 5ce:	77 1f       	adc	r23, r23
 5d0:	88 1f       	adc	r24, r24
 5d2:	99 1f       	adc	r25, r25
 5d4:	1a 94       	dec	r1
 5d6:	69 f7       	brne	.-38     	; 0x5b2 <__udivmodsi4_loop>
 5d8:	60 95       	com	r22
 5da:	70 95       	com	r23
 5dc:	80 95       	com	r24
 5de:	90 95       	com	r25
 5e0:	9b 01       	movw	r18, r22
 5e2:	ac 01       	movw	r20, r24
 5e4:	bd 01       	movw	r22, r26
 5e6:	cf 01       	movw	r24, r30
 5e8:	08 95       	ret

000005ea <_exit>:
 5ea:	f8 94       	cli

000005ec <__stop_program>:
 5ec:	ff cf       	rjmp	.-2      	; 0x5ec <__stop_program>
