
apola001_Final_Project.elf:     file format elf32-avr

Sections:
Idx Name          Size      VMA       LMA       File off  Algn
  0 .data         0000007c  00800100  00001bd0  00001c84  2**0
                  CONTENTS, ALLOC, LOAD, DATA
  1 .text         00001bd0  00000000  00000000  000000b4  2**1
                  CONTENTS, ALLOC, LOAD, READONLY, CODE
  2 .bss          00000092  0080017c  0080017c  00001d00  2**0
                  ALLOC
  3 .eeprom       00000001  00810000  00810000  00001d00  2**0
                  CONTENTS, ALLOC, LOAD, DATA
  4 .comment      00000030  00000000  00000000  00001d01  2**0
                  CONTENTS, READONLY
  5 .debug_aranges 00000100  00000000  00000000  00001d31  2**0
                  CONTENTS, READONLY, DEBUGGING
  6 .debug_info   00000ceb  00000000  00000000  00001e31  2**0
                  CONTENTS, READONLY, DEBUGGING
  7 .debug_abbrev 00000228  00000000  00000000  00002b1c  2**0
                  CONTENTS, READONLY, DEBUGGING
  8 .debug_line   0000124b  00000000  00000000  00002d44  2**0
                  CONTENTS, READONLY, DEBUGGING
  9 .debug_frame  00000404  00000000  00000000  00003f90  2**2
                  CONTENTS, READONLY, DEBUGGING
 10 .debug_str    0000079c  00000000  00000000  00004394  2**0
                  CONTENTS, READONLY, DEBUGGING
 11 .debug_loc    0000089b  00000000  00000000  00004b30  2**0
                  CONTENTS, READONLY, DEBUGGING
 12 .debug_ranges 000000f0  00000000  00000000  000053cb  2**0
                  CONTENTS, READONLY, DEBUGGING

Disassembly of section .text:

00000000 <__vectors>:
       0:	53 c0       	rjmp	.+166    	; 0xa8 <__ctors_end>
       2:	00 00       	nop
       4:	70 c0       	rjmp	.+224    	; 0xe6 <__bad_interrupt>
       6:	00 00       	nop
       8:	6e c0       	rjmp	.+220    	; 0xe6 <__bad_interrupt>
       a:	00 00       	nop
       c:	6c c0       	rjmp	.+216    	; 0xe6 <__bad_interrupt>
       e:	00 00       	nop
      10:	6a c0       	rjmp	.+212    	; 0xe6 <__bad_interrupt>
      12:	00 00       	nop
      14:	68 c0       	rjmp	.+208    	; 0xe6 <__bad_interrupt>
      16:	00 00       	nop
      18:	66 c0       	rjmp	.+204    	; 0xe6 <__bad_interrupt>
      1a:	00 00       	nop
      1c:	64 c0       	rjmp	.+200    	; 0xe6 <__bad_interrupt>
      1e:	00 00       	nop
      20:	62 c0       	rjmp	.+196    	; 0xe6 <__bad_interrupt>
      22:	00 00       	nop
      24:	60 c0       	rjmp	.+192    	; 0xe6 <__bad_interrupt>
      26:	00 00       	nop
      28:	5e c0       	rjmp	.+188    	; 0xe6 <__bad_interrupt>
      2a:	00 00       	nop
      2c:	5c c0       	rjmp	.+184    	; 0xe6 <__bad_interrupt>
      2e:	00 00       	nop
      30:	5a c0       	rjmp	.+180    	; 0xe6 <__bad_interrupt>
      32:	00 00       	nop
      34:	65 c2       	rjmp	.+1226   	; 0x500 <__vector_13>
      36:	00 00       	nop
      38:	56 c0       	rjmp	.+172    	; 0xe6 <__bad_interrupt>
      3a:	00 00       	nop
      3c:	54 c0       	rjmp	.+168    	; 0xe6 <__bad_interrupt>
      3e:	00 00       	nop
      40:	52 c0       	rjmp	.+164    	; 0xe6 <__bad_interrupt>
      42:	00 00       	nop
      44:	50 c0       	rjmp	.+160    	; 0xe6 <__bad_interrupt>
      46:	00 00       	nop
      48:	4e c0       	rjmp	.+156    	; 0xe6 <__bad_interrupt>
      4a:	00 00       	nop
      4c:	4c c0       	rjmp	.+152    	; 0xe6 <__bad_interrupt>
      4e:	00 00       	nop
      50:	4a c0       	rjmp	.+148    	; 0xe6 <__bad_interrupt>
      52:	00 00       	nop
      54:	48 c0       	rjmp	.+144    	; 0xe6 <__bad_interrupt>
      56:	00 00       	nop
      58:	46 c0       	rjmp	.+140    	; 0xe6 <__bad_interrupt>
      5a:	00 00       	nop
      5c:	44 c0       	rjmp	.+136    	; 0xe6 <__bad_interrupt>
      5e:	00 00       	nop
      60:	42 c0       	rjmp	.+132    	; 0xe6 <__bad_interrupt>
      62:	00 00       	nop
      64:	40 c0       	rjmp	.+128    	; 0xe6 <__bad_interrupt>
      66:	00 00       	nop
      68:	3e c0       	rjmp	.+124    	; 0xe6 <__bad_interrupt>
      6a:	00 00       	nop
      6c:	3c c0       	rjmp	.+120    	; 0xe6 <__bad_interrupt>
      6e:	00 00       	nop
      70:	3a c0       	rjmp	.+116    	; 0xe6 <__bad_interrupt>
      72:	00 00       	nop
      74:	38 c0       	rjmp	.+112    	; 0xe6 <__bad_interrupt>
      76:	00 00       	nop
      78:	36 c0       	rjmp	.+108    	; 0xe6 <__bad_interrupt>
      7a:	00 00       	nop
      7c:	34 c0       	rjmp	.+104    	; 0xe6 <__bad_interrupt>
      7e:	00 00       	nop
      80:	32 c0       	rjmp	.+100    	; 0xe6 <__bad_interrupt>
      82:	00 00       	nop
      84:	30 c0       	rjmp	.+96     	; 0xe6 <__bad_interrupt>
      86:	00 00       	nop
      88:	2e c0       	rjmp	.+92     	; 0xe6 <__bad_interrupt>
      8a:	00 00       	nop
      8c:	30 09       	sbc	r19, r0
      8e:	35 09       	sbc	r19, r5
      90:	84 09       	sbc	r24, r4
      92:	89 09       	sbc	r24, r9
      94:	8e 09       	sbc	r24, r14
      96:	98 09       	sbc	r25, r8
      98:	b2 09       	sbc	r27, r2
      9a:	d9 09       	sbc	r29, r9
      9c:	4a 0a       	sbc	r4, r26
      9e:	e9 09       	sbc	r30, r9
      a0:	4a 0a       	sbc	r4, r26
      a2:	4a 0a       	sbc	r4, r26
      a4:	4a 0a       	sbc	r4, r26
      a6:	f6 09       	sbc	r31, r6

000000a8 <__ctors_end>:
      a8:	11 24       	eor	r1, r1
      aa:	1f be       	out	0x3f, r1	; 63
      ac:	cf ef       	ldi	r28, 0xFF	; 255
      ae:	d0 e4       	ldi	r29, 0x40	; 64
      b0:	de bf       	out	0x3e, r29	; 62
      b2:	cd bf       	out	0x3d, r28	; 61

000000b4 <__do_copy_data>:
      b4:	11 e0       	ldi	r17, 0x01	; 1
      b6:	a0 e0       	ldi	r26, 0x00	; 0
      b8:	b1 e0       	ldi	r27, 0x01	; 1
      ba:	e0 ed       	ldi	r30, 0xD0	; 208
      bc:	fb e1       	ldi	r31, 0x1B	; 27
      be:	00 e0       	ldi	r16, 0x00	; 0
      c0:	0b bf       	out	0x3b, r16	; 59
      c2:	02 c0       	rjmp	.+4      	; 0xc8 <__do_copy_data+0x14>
      c4:	07 90       	elpm	r0, Z+
      c6:	0d 92       	st	X+, r0
      c8:	ac 37       	cpi	r26, 0x7C	; 124
      ca:	b1 07       	cpc	r27, r17
      cc:	d9 f7       	brne	.-10     	; 0xc4 <__do_copy_data+0x10>

000000ce <__do_clear_bss>:
      ce:	22 e0       	ldi	r18, 0x02	; 2
      d0:	ac e7       	ldi	r26, 0x7C	; 124
      d2:	b1 e0       	ldi	r27, 0x01	; 1
      d4:	01 c0       	rjmp	.+2      	; 0xd8 <.do_clear_bss_start>

000000d6 <.do_clear_bss_loop>:
      d6:	1d 92       	st	X+, r1

000000d8 <.do_clear_bss_start>:
      d8:	ae 30       	cpi	r26, 0x0E	; 14
      da:	b2 07       	cpc	r27, r18
      dc:	e1 f7       	brne	.-8      	; 0xd6 <.do_clear_bss_loop>
      de:	0e 94 56 0a 	call	0x14ac	; 0x14ac <main>
      e2:	0c 94 e6 0d 	jmp	0x1bcc	; 0x1bcc <_exit>

000000e6 <__bad_interrupt>:
      e6:	8c cf       	rjmp	.-232    	; 0x0 <__vectors>

000000e8 <LCD_ClearScreen>:
    SREG = 0x80;
}

void TimerOff(){
    TCCR1B = 0x00;
}
      e8:	cf 93       	push	r28
      ea:	df 93       	push	r29
      ec:	cd b7       	in	r28, 0x3d	; 61
      ee:	de b7       	in	r29, 0x3e	; 62
      f0:	81 e0       	ldi	r24, 0x01	; 1
      f2:	18 d0       	rcall	.+48     	; 0x124 <LCD_WriteCommand>
      f4:	df 91       	pop	r29
      f6:	cf 91       	pop	r28
      f8:	08 95       	ret

000000fa <LCD_init>:
      fa:	cf 93       	push	r28
      fc:	df 93       	push	r29
      fe:	cd b7       	in	r28, 0x3d	; 61
     100:	de b7       	in	r29, 0x3e	; 62
     102:	84 e6       	ldi	r24, 0x64	; 100
     104:	90 e0       	ldi	r25, 0x00	; 0
     106:	cf d0       	rcall	.+414    	; 0x2a6 <delay_ms>
     108:	88 e3       	ldi	r24, 0x38	; 56
     10a:	0c d0       	rcall	.+24     	; 0x124 <LCD_WriteCommand>
     10c:	86 e0       	ldi	r24, 0x06	; 6
     10e:	0a d0       	rcall	.+20     	; 0x124 <LCD_WriteCommand>
     110:	8f e0       	ldi	r24, 0x0F	; 15
     112:	08 d0       	rcall	.+16     	; 0x124 <LCD_WriteCommand>
     114:	81 e0       	ldi	r24, 0x01	; 1
     116:	06 d0       	rcall	.+12     	; 0x124 <LCD_WriteCommand>
     118:	8a e0       	ldi	r24, 0x0A	; 10
     11a:	90 e0       	ldi	r25, 0x00	; 0
     11c:	c4 d0       	rcall	.+392    	; 0x2a6 <delay_ms>
     11e:	df 91       	pop	r29
     120:	cf 91       	pop	r28
     122:	08 95       	ret

00000124 <LCD_WriteCommand>:
     124:	cf 93       	push	r28
     126:	df 93       	push	r29
     128:	1f 92       	push	r1
     12a:	cd b7       	in	r28, 0x3d	; 61
     12c:	de b7       	in	r29, 0x3e	; 62
     12e:	89 83       	std	Y+1, r24	; 0x01
     130:	82 e2       	ldi	r24, 0x22	; 34
     132:	90 e0       	ldi	r25, 0x00	; 0
     134:	22 e2       	ldi	r18, 0x22	; 34
     136:	30 e0       	ldi	r19, 0x00	; 0
     138:	f9 01       	movw	r30, r18
     13a:	20 81       	ld	r18, Z
     13c:	2e 7f       	andi	r18, 0xFE	; 254
     13e:	fc 01       	movw	r30, r24
     140:	20 83       	st	Z, r18
     142:	8b e2       	ldi	r24, 0x2B	; 43
     144:	90 e0       	ldi	r25, 0x00	; 0
     146:	29 81       	ldd	r18, Y+1	; 0x01
     148:	fc 01       	movw	r30, r24
     14a:	20 83       	st	Z, r18
     14c:	82 e2       	ldi	r24, 0x22	; 34
     14e:	90 e0       	ldi	r25, 0x00	; 0
     150:	22 e2       	ldi	r18, 0x22	; 34
     152:	30 e0       	ldi	r19, 0x00	; 0
     154:	f9 01       	movw	r30, r18
     156:	20 81       	ld	r18, Z
     158:	22 60       	ori	r18, 0x02	; 2
     15a:	fc 01       	movw	r30, r24
     15c:	20 83       	st	Z, r18
     15e:	00 00       	nop
     160:	82 e2       	ldi	r24, 0x22	; 34
     162:	90 e0       	ldi	r25, 0x00	; 0
     164:	22 e2       	ldi	r18, 0x22	; 34
     166:	30 e0       	ldi	r19, 0x00	; 0
     168:	f9 01       	movw	r30, r18
     16a:	20 81       	ld	r18, Z
     16c:	2d 7f       	andi	r18, 0xFD	; 253
     16e:	fc 01       	movw	r30, r24
     170:	20 83       	st	Z, r18
     172:	82 e0       	ldi	r24, 0x02	; 2
     174:	90 e0       	ldi	r25, 0x00	; 0
     176:	97 d0       	rcall	.+302    	; 0x2a6 <delay_ms>
     178:	0f 90       	pop	r0
     17a:	df 91       	pop	r29
     17c:	cf 91       	pop	r28
     17e:	08 95       	ret

00000180 <LCD_WriteData>:
     180:	cf 93       	push	r28
     182:	df 93       	push	r29
     184:	1f 92       	push	r1
     186:	cd b7       	in	r28, 0x3d	; 61
     188:	de b7       	in	r29, 0x3e	; 62
     18a:	89 83       	std	Y+1, r24	; 0x01
     18c:	82 e2       	ldi	r24, 0x22	; 34
     18e:	90 e0       	ldi	r25, 0x00	; 0
     190:	22 e2       	ldi	r18, 0x22	; 34
     192:	30 e0       	ldi	r19, 0x00	; 0
     194:	f9 01       	movw	r30, r18
     196:	20 81       	ld	r18, Z
     198:	21 60       	ori	r18, 0x01	; 1
     19a:	fc 01       	movw	r30, r24
     19c:	20 83       	st	Z, r18
     19e:	8b e2       	ldi	r24, 0x2B	; 43
     1a0:	90 e0       	ldi	r25, 0x00	; 0
     1a2:	29 81       	ldd	r18, Y+1	; 0x01
     1a4:	fc 01       	movw	r30, r24
     1a6:	20 83       	st	Z, r18
     1a8:	82 e2       	ldi	r24, 0x22	; 34
     1aa:	90 e0       	ldi	r25, 0x00	; 0
     1ac:	22 e2       	ldi	r18, 0x22	; 34
     1ae:	30 e0       	ldi	r19, 0x00	; 0
     1b0:	f9 01       	movw	r30, r18
     1b2:	20 81       	ld	r18, Z
     1b4:	22 60       	ori	r18, 0x02	; 2
     1b6:	fc 01       	movw	r30, r24
     1b8:	20 83       	st	Z, r18
     1ba:	00 00       	nop
     1bc:	82 e2       	ldi	r24, 0x22	; 34
     1be:	90 e0       	ldi	r25, 0x00	; 0
     1c0:	22 e2       	ldi	r18, 0x22	; 34
     1c2:	30 e0       	ldi	r19, 0x00	; 0
     1c4:	f9 01       	movw	r30, r18
     1c6:	20 81       	ld	r18, Z
     1c8:	2d 7f       	andi	r18, 0xFD	; 253
     1ca:	fc 01       	movw	r30, r24
     1cc:	20 83       	st	Z, r18
     1ce:	81 e0       	ldi	r24, 0x01	; 1
     1d0:	90 e0       	ldi	r25, 0x00	; 0
     1d2:	69 d0       	rcall	.+210    	; 0x2a6 <delay_ms>
     1d4:	0f 90       	pop	r0
     1d6:	df 91       	pop	r29
     1d8:	cf 91       	pop	r28
     1da:	08 95       	ret

000001dc <LCD_DisplayString>:
     1dc:	cf 93       	push	r28
     1de:	df 93       	push	r29
     1e0:	00 d0       	rcall	.+0      	; 0x1e2 <LCD_DisplayString+0x6>
     1e2:	00 d0       	rcall	.+0      	; 0x1e4 <LCD_DisplayString+0x8>
     1e4:	cd b7       	in	r28, 0x3d	; 61
     1e6:	de b7       	in	r29, 0x3e	; 62
     1e8:	8a 83       	std	Y+2, r24	; 0x02
     1ea:	7c 83       	std	Y+4, r23	; 0x04
     1ec:	6b 83       	std	Y+3, r22	; 0x03
     1ee:	7c df       	rcall	.-264    	; 0xe8 <LCD_ClearScreen>
     1f0:	8a 81       	ldd	r24, Y+2	; 0x02
     1f2:	89 83       	std	Y+1, r24	; 0x01
     1f4:	0f c0       	rjmp	.+30     	; 0x214 <LCD_DisplayString+0x38>
     1f6:	89 81       	ldd	r24, Y+1	; 0x01
     1f8:	91 e0       	ldi	r25, 0x01	; 1
     1fa:	98 0f       	add	r25, r24
     1fc:	99 83       	std	Y+1, r25	; 0x01
     1fe:	3f d0       	rcall	.+126    	; 0x27e <LCD_Cursor>
     200:	8b 81       	ldd	r24, Y+3	; 0x03
     202:	9c 81       	ldd	r25, Y+4	; 0x04
     204:	9c 01       	movw	r18, r24
     206:	2f 5f       	subi	r18, 0xFF	; 255
     208:	3f 4f       	sbci	r19, 0xFF	; 255
     20a:	3c 83       	std	Y+4, r19	; 0x04
     20c:	2b 83       	std	Y+3, r18	; 0x03
     20e:	fc 01       	movw	r30, r24
     210:	80 81       	ld	r24, Z
     212:	b6 df       	rcall	.-148    	; 0x180 <LCD_WriteData>
     214:	8b 81       	ldd	r24, Y+3	; 0x03
     216:	9c 81       	ldd	r25, Y+4	; 0x04
     218:	fc 01       	movw	r30, r24
     21a:	80 81       	ld	r24, Z
     21c:	88 23       	and	r24, r24
     21e:	59 f7       	brne	.-42     	; 0x1f6 <LCD_DisplayString+0x1a>
     220:	0f 90       	pop	r0
     222:	0f 90       	pop	r0
     224:	0f 90       	pop	r0
     226:	0f 90       	pop	r0
     228:	df 91       	pop	r29
     22a:	cf 91       	pop	r28
     22c:	08 95       	ret

0000022e <LCD_DisplayString_NoClear>:
     22e:	cf 93       	push	r28
     230:	df 93       	push	r29
     232:	00 d0       	rcall	.+0      	; 0x234 <LCD_DisplayString_NoClear+0x6>
     234:	00 d0       	rcall	.+0      	; 0x236 <LCD_DisplayString_NoClear+0x8>
     236:	cd b7       	in	r28, 0x3d	; 61
     238:	de b7       	in	r29, 0x3e	; 62
     23a:	8a 83       	std	Y+2, r24	; 0x02
     23c:	7c 83       	std	Y+4, r23	; 0x04
     23e:	6b 83       	std	Y+3, r22	; 0x03
     240:	8a 81       	ldd	r24, Y+2	; 0x02
     242:	89 83       	std	Y+1, r24	; 0x01
     244:	0f c0       	rjmp	.+30     	; 0x264 <LCD_DisplayString_NoClear+0x36>
     246:	89 81       	ldd	r24, Y+1	; 0x01
     248:	91 e0       	ldi	r25, 0x01	; 1
     24a:	98 0f       	add	r25, r24
     24c:	99 83       	std	Y+1, r25	; 0x01
     24e:	17 d0       	rcall	.+46     	; 0x27e <LCD_Cursor>
     250:	8b 81       	ldd	r24, Y+3	; 0x03
     252:	9c 81       	ldd	r25, Y+4	; 0x04
     254:	9c 01       	movw	r18, r24
     256:	2f 5f       	subi	r18, 0xFF	; 255
     258:	3f 4f       	sbci	r19, 0xFF	; 255
     25a:	3c 83       	std	Y+4, r19	; 0x04
     25c:	2b 83       	std	Y+3, r18	; 0x03
     25e:	fc 01       	movw	r30, r24
     260:	80 81       	ld	r24, Z
     262:	8e df       	rcall	.-228    	; 0x180 <LCD_WriteData>
     264:	8b 81       	ldd	r24, Y+3	; 0x03
     266:	9c 81       	ldd	r25, Y+4	; 0x04
     268:	fc 01       	movw	r30, r24
     26a:	80 81       	ld	r24, Z
     26c:	88 23       	and	r24, r24
     26e:	59 f7       	brne	.-42     	; 0x246 <LCD_DisplayString_NoClear+0x18>
     270:	0f 90       	pop	r0
     272:	0f 90       	pop	r0
     274:	0f 90       	pop	r0
     276:	0f 90       	pop	r0
     278:	df 91       	pop	r29
     27a:	cf 91       	pop	r28
     27c:	08 95       	ret

0000027e <LCD_Cursor>:
     27e:	cf 93       	push	r28
     280:	df 93       	push	r29
     282:	1f 92       	push	r1
     284:	cd b7       	in	r28, 0x3d	; 61
     286:	de b7       	in	r29, 0x3e	; 62
     288:	89 83       	std	Y+1, r24	; 0x01
     28a:	89 81       	ldd	r24, Y+1	; 0x01
     28c:	81 31       	cpi	r24, 0x11	; 17
     28e:	20 f4       	brcc	.+8      	; 0x298 <LCD_Cursor+0x1a>
     290:	89 81       	ldd	r24, Y+1	; 0x01
     292:	81 58       	subi	r24, 0x81	; 129
     294:	47 df       	rcall	.-370    	; 0x124 <LCD_WriteCommand>
     296:	03 c0       	rjmp	.+6      	; 0x29e <LCD_Cursor+0x20>
     298:	89 81       	ldd	r24, Y+1	; 0x01
     29a:	81 55       	subi	r24, 0x51	; 81
     29c:	43 df       	rcall	.-378    	; 0x124 <LCD_WriteCommand>
     29e:	0f 90       	pop	r0
     2a0:	df 91       	pop	r29
     2a2:	cf 91       	pop	r28
     2a4:	08 95       	ret

000002a6 <delay_ms>:
     2a6:	cf 93       	push	r28
     2a8:	df 93       	push	r29
     2aa:	00 d0       	rcall	.+0      	; 0x2ac <delay_ms+0x6>
     2ac:	00 d0       	rcall	.+0      	; 0x2ae <delay_ms+0x8>
     2ae:	00 d0       	rcall	.+0      	; 0x2b0 <delay_ms+0xa>
     2b0:	cd b7       	in	r28, 0x3d	; 61
     2b2:	de b7       	in	r29, 0x3e	; 62
     2b4:	9e 83       	std	Y+6, r25	; 0x06
     2b6:	8d 83       	std	Y+5, r24	; 0x05
     2b8:	1a 82       	std	Y+2, r1	; 0x02
     2ba:	19 82       	std	Y+1, r1	; 0x01
     2bc:	14 c0       	rjmp	.+40     	; 0x2e6 <delay_ms+0x40>
     2be:	1c 82       	std	Y+4, r1	; 0x04
     2c0:	1b 82       	std	Y+3, r1	; 0x03
     2c2:	06 c0       	rjmp	.+12     	; 0x2d0 <delay_ms+0x2a>
     2c4:	00 00       	nop
     2c6:	8b 81       	ldd	r24, Y+3	; 0x03
     2c8:	9c 81       	ldd	r25, Y+4	; 0x04
     2ca:	01 96       	adiw	r24, 0x01	; 1
     2cc:	9c 83       	std	Y+4, r25	; 0x04
     2ce:	8b 83       	std	Y+3, r24	; 0x03
     2d0:	8b 81       	ldd	r24, Y+3	; 0x03
     2d2:	9c 81       	ldd	r25, Y+4	; 0x04
     2d4:	87 30       	cpi	r24, 0x07	; 7
     2d6:	23 e0       	ldi	r18, 0x03	; 3
     2d8:	92 07       	cpc	r25, r18
     2da:	a4 f3       	brlt	.-24     	; 0x2c4 <delay_ms+0x1e>
     2dc:	89 81       	ldd	r24, Y+1	; 0x01
     2de:	9a 81       	ldd	r25, Y+2	; 0x02
     2e0:	01 96       	adiw	r24, 0x01	; 1
     2e2:	9a 83       	std	Y+2, r25	; 0x02
     2e4:	89 83       	std	Y+1, r24	; 0x01
     2e6:	29 81       	ldd	r18, Y+1	; 0x01
     2e8:	3a 81       	ldd	r19, Y+2	; 0x02
     2ea:	8d 81       	ldd	r24, Y+5	; 0x05
     2ec:	9e 81       	ldd	r25, Y+6	; 0x06
     2ee:	28 17       	cp	r18, r24
     2f0:	39 07       	cpc	r19, r25
     2f2:	2c f3       	brlt	.-54     	; 0x2be <delay_ms+0x18>
     2f4:	26 96       	adiw	r28, 0x06	; 6
     2f6:	0f b6       	in	r0, 0x3f	; 63
     2f8:	f8 94       	cli
     2fa:	de bf       	out	0x3e, r29	; 62
     2fc:	0f be       	out	0x3f, r0	; 63
     2fe:	cd bf       	out	0x3d, r28	; 61
     300:	df 91       	pop	r29
     302:	cf 91       	pop	r28
     304:	08 95       	ret

00000306 <GetBit>:
     306:	cf 93       	push	r28
     308:	df 93       	push	r29
     30a:	00 d0       	rcall	.+0      	; 0x30c <GetBit+0x6>
     30c:	cd b7       	in	r28, 0x3d	; 61
     30e:	de b7       	in	r29, 0x3e	; 62
     310:	89 83       	std	Y+1, r24	; 0x01
     312:	6a 83       	std	Y+2, r22	; 0x02
     314:	8a 81       	ldd	r24, Y+2	; 0x02
     316:	28 2f       	mov	r18, r24
     318:	30 e0       	ldi	r19, 0x00	; 0
     31a:	81 e0       	ldi	r24, 0x01	; 1
     31c:	90 e0       	ldi	r25, 0x00	; 0
     31e:	02 2e       	mov	r0, r18
     320:	02 c0       	rjmp	.+4      	; 0x326 <GetBit+0x20>
     322:	88 0f       	add	r24, r24
     324:	99 1f       	adc	r25, r25
     326:	0a 94       	dec	r0
     328:	e2 f7       	brpl	.-8      	; 0x322 <GetBit+0x1c>
     32a:	98 2f       	mov	r25, r24
     32c:	89 81       	ldd	r24, Y+1	; 0x01
     32e:	89 23       	and	r24, r25
     330:	0f 90       	pop	r0
     332:	0f 90       	pop	r0
     334:	df 91       	pop	r29
     336:	cf 91       	pop	r28
     338:	08 95       	ret

0000033a <GetKeypadKey>:
     33a:	cf 93       	push	r28
     33c:	df 93       	push	r29
     33e:	1f 92       	push	r1
     340:	cd b7       	in	r28, 0x3d	; 61
     342:	de b7       	in	r29, 0x3e	; 62
     344:	19 82       	std	Y+1, r1	; 0x01
     346:	82 e2       	ldi	r24, 0x22	; 34
     348:	90 e0       	ldi	r25, 0x00	; 0
     34a:	22 e2       	ldi	r18, 0x22	; 34
     34c:	30 e0       	ldi	r19, 0x00	; 0
     34e:	f9 01       	movw	r30, r18
     350:	20 81       	ld	r18, Z
     352:	23 70       	andi	r18, 0x03	; 3
     354:	fc 01       	movw	r30, r24
     356:	20 83       	st	Z, r18
     358:	82 e2       	ldi	r24, 0x22	; 34
     35a:	90 e0       	ldi	r25, 0x00	; 0
     35c:	22 e2       	ldi	r18, 0x22	; 34
     35e:	30 e0       	ldi	r19, 0x00	; 0
     360:	f9 01       	movw	r30, r18
     362:	20 81       	ld	r18, Z
     364:	2c 6d       	ori	r18, 0xDC	; 220
     366:	fc 01       	movw	r30, r24
     368:	20 83       	st	Z, r18
     36a:	00 00       	nop
     36c:	80 e2       	ldi	r24, 0x20	; 32
     36e:	90 e0       	ldi	r25, 0x00	; 0
     370:	fc 01       	movw	r30, r24
     372:	80 81       	ld	r24, Z
     374:	67 e0       	ldi	r22, 0x07	; 7
     376:	c7 df       	rcall	.-114    	; 0x306 <GetBit>
     378:	88 23       	and	r24, r24
     37a:	11 f4       	brne	.+4      	; 0x380 <GetKeypadKey+0x46>
     37c:	81 e3       	ldi	r24, 0x31	; 49
     37e:	89 83       	std	Y+1, r24	; 0x01
     380:	80 e2       	ldi	r24, 0x20	; 32
     382:	90 e0       	ldi	r25, 0x00	; 0
     384:	fc 01       	movw	r30, r24
     386:	80 81       	ld	r24, Z
     388:	66 e0       	ldi	r22, 0x06	; 6
     38a:	bd df       	rcall	.-134    	; 0x306 <GetBit>
     38c:	88 23       	and	r24, r24
     38e:	11 f4       	brne	.+4      	; 0x394 <GetKeypadKey+0x5a>
     390:	84 e3       	ldi	r24, 0x34	; 52
     392:	89 83       	std	Y+1, r24	; 0x01
     394:	82 e2       	ldi	r24, 0x22	; 34
     396:	90 e0       	ldi	r25, 0x00	; 0
     398:	22 e2       	ldi	r18, 0x22	; 34
     39a:	30 e0       	ldi	r19, 0x00	; 0
     39c:	f9 01       	movw	r30, r18
     39e:	20 81       	ld	r18, Z
     3a0:	23 70       	andi	r18, 0x03	; 3
     3a2:	fc 01       	movw	r30, r24
     3a4:	20 83       	st	Z, r18
     3a6:	82 e2       	ldi	r24, 0x22	; 34
     3a8:	90 e0       	ldi	r25, 0x00	; 0
     3aa:	22 e2       	ldi	r18, 0x22	; 34
     3ac:	30 e0       	ldi	r19, 0x00	; 0
     3ae:	f9 01       	movw	r30, r18
     3b0:	20 81       	ld	r18, Z
     3b2:	2c 6e       	ori	r18, 0xEC	; 236
     3b4:	fc 01       	movw	r30, r24
     3b6:	20 83       	st	Z, r18
     3b8:	00 00       	nop
     3ba:	80 e2       	ldi	r24, 0x20	; 32
     3bc:	90 e0       	ldi	r25, 0x00	; 0
     3be:	fc 01       	movw	r30, r24
     3c0:	80 81       	ld	r24, Z
     3c2:	67 e0       	ldi	r22, 0x07	; 7
     3c4:	a0 df       	rcall	.-192    	; 0x306 <GetBit>
     3c6:	88 23       	and	r24, r24
     3c8:	11 f4       	brne	.+4      	; 0x3ce <GetKeypadKey+0x94>
     3ca:	82 e3       	ldi	r24, 0x32	; 50
     3cc:	89 83       	std	Y+1, r24	; 0x01
     3ce:	80 e2       	ldi	r24, 0x20	; 32
     3d0:	90 e0       	ldi	r25, 0x00	; 0
     3d2:	fc 01       	movw	r30, r24
     3d4:	80 81       	ld	r24, Z
     3d6:	66 e0       	ldi	r22, 0x06	; 6
     3d8:	96 df       	rcall	.-212    	; 0x306 <GetBit>
     3da:	88 23       	and	r24, r24
     3dc:	11 f4       	brne	.+4      	; 0x3e2 <GetKeypadKey+0xa8>
     3de:	85 e3       	ldi	r24, 0x35	; 53
     3e0:	89 83       	std	Y+1, r24	; 0x01
     3e2:	82 e2       	ldi	r24, 0x22	; 34
     3e4:	90 e0       	ldi	r25, 0x00	; 0
     3e6:	22 e2       	ldi	r18, 0x22	; 34
     3e8:	30 e0       	ldi	r19, 0x00	; 0
     3ea:	f9 01       	movw	r30, r18
     3ec:	20 81       	ld	r18, Z
     3ee:	23 70       	andi	r18, 0x03	; 3
     3f0:	fc 01       	movw	r30, r24
     3f2:	20 83       	st	Z, r18
     3f4:	82 e2       	ldi	r24, 0x22	; 34
     3f6:	90 e0       	ldi	r25, 0x00	; 0
     3f8:	22 e2       	ldi	r18, 0x22	; 34
     3fa:	30 e0       	ldi	r19, 0x00	; 0
     3fc:	f9 01       	movw	r30, r18
     3fe:	20 81       	ld	r18, Z
     400:	24 6f       	ori	r18, 0xF4	; 244
     402:	fc 01       	movw	r30, r24
     404:	20 83       	st	Z, r18
     406:	00 00       	nop
     408:	80 e2       	ldi	r24, 0x20	; 32
     40a:	90 e0       	ldi	r25, 0x00	; 0
     40c:	fc 01       	movw	r30, r24
     40e:	80 81       	ld	r24, Z
     410:	67 e0       	ldi	r22, 0x07	; 7
     412:	79 df       	rcall	.-270    	; 0x306 <GetBit>
     414:	88 23       	and	r24, r24
     416:	11 f4       	brne	.+4      	; 0x41c <GetKeypadKey+0xe2>
     418:	83 e3       	ldi	r24, 0x33	; 51
     41a:	89 83       	std	Y+1, r24	; 0x01
     41c:	80 e2       	ldi	r24, 0x20	; 32
     41e:	90 e0       	ldi	r25, 0x00	; 0
     420:	fc 01       	movw	r30, r24
     422:	80 81       	ld	r24, Z
     424:	66 e0       	ldi	r22, 0x06	; 6
     426:	6f df       	rcall	.-290    	; 0x306 <GetBit>
     428:	88 23       	and	r24, r24
     42a:	11 f4       	brne	.+4      	; 0x430 <GetKeypadKey+0xf6>
     42c:	86 e3       	ldi	r24, 0x36	; 54
     42e:	89 83       	std	Y+1, r24	; 0x01
     430:	82 e2       	ldi	r24, 0x22	; 34
     432:	90 e0       	ldi	r25, 0x00	; 0
     434:	22 e2       	ldi	r18, 0x22	; 34
     436:	30 e0       	ldi	r19, 0x00	; 0
     438:	f9 01       	movw	r30, r18
     43a:	20 81       	ld	r18, Z
     43c:	23 70       	andi	r18, 0x03	; 3
     43e:	fc 01       	movw	r30, r24
     440:	20 83       	st	Z, r18
     442:	82 e2       	ldi	r24, 0x22	; 34
     444:	90 e0       	ldi	r25, 0x00	; 0
     446:	22 e2       	ldi	r18, 0x22	; 34
     448:	30 e0       	ldi	r19, 0x00	; 0
     44a:	f9 01       	movw	r30, r18
     44c:	20 81       	ld	r18, Z
     44e:	28 6f       	ori	r18, 0xF8	; 248
     450:	fc 01       	movw	r30, r24
     452:	20 83       	st	Z, r18
     454:	00 00       	nop
     456:	80 e2       	ldi	r24, 0x20	; 32
     458:	90 e0       	ldi	r25, 0x00	; 0
     45a:	fc 01       	movw	r30, r24
     45c:	80 81       	ld	r24, Z
     45e:	67 e0       	ldi	r22, 0x07	; 7
     460:	52 df       	rcall	.-348    	; 0x306 <GetBit>
     462:	88 23       	and	r24, r24
     464:	11 f4       	brne	.+4      	; 0x46a <GetKeypadKey+0x130>
     466:	81 e4       	ldi	r24, 0x41	; 65
     468:	89 83       	std	Y+1, r24	; 0x01
     46a:	80 e2       	ldi	r24, 0x20	; 32
     46c:	90 e0       	ldi	r25, 0x00	; 0
     46e:	fc 01       	movw	r30, r24
     470:	80 81       	ld	r24, Z
     472:	66 e0       	ldi	r22, 0x06	; 6
     474:	48 df       	rcall	.-368    	; 0x306 <GetBit>
     476:	88 23       	and	r24, r24
     478:	11 f4       	brne	.+4      	; 0x47e <GetKeypadKey+0x144>
     47a:	82 e4       	ldi	r24, 0x42	; 66
     47c:	89 83       	std	Y+1, r24	; 0x01
     47e:	89 81       	ldd	r24, Y+1	; 0x01
     480:	0f 90       	pop	r0
     482:	df 91       	pop	r29
     484:	cf 91       	pop	r28
     486:	08 95       	ret

00000488 <TimerOn>:
     488:	cf 93       	push	r28
     48a:	df 93       	push	r29
     48c:	cd b7       	in	r28, 0x3d	; 61
     48e:	de b7       	in	r29, 0x3e	; 62
     490:	81 e8       	ldi	r24, 0x81	; 129
     492:	90 e0       	ldi	r25, 0x00	; 0
     494:	2b e0       	ldi	r18, 0x0B	; 11
     496:	fc 01       	movw	r30, r24
     498:	20 83       	st	Z, r18
     49a:	88 e8       	ldi	r24, 0x88	; 136
     49c:	90 e0       	ldi	r25, 0x00	; 0
     49e:	2d e7       	ldi	r18, 0x7D	; 125
     4a0:	30 e0       	ldi	r19, 0x00	; 0
     4a2:	fc 01       	movw	r30, r24
     4a4:	31 83       	std	Z+1, r19	; 0x01
     4a6:	20 83       	st	Z, r18
     4a8:	8f e6       	ldi	r24, 0x6F	; 111
     4aa:	90 e0       	ldi	r25, 0x00	; 0
     4ac:	22 e0       	ldi	r18, 0x02	; 2
     4ae:	fc 01       	movw	r30, r24
     4b0:	20 83       	st	Z, r18
     4b2:	84 e8       	ldi	r24, 0x84	; 132
     4b4:	90 e0       	ldi	r25, 0x00	; 0
     4b6:	fc 01       	movw	r30, r24
     4b8:	11 82       	std	Z+1, r1	; 0x01
     4ba:	10 82       	st	Z, r1
     4bc:	80 91 00 01 	lds	r24, 0x0100
     4c0:	90 91 01 01 	lds	r25, 0x0101
     4c4:	a0 91 02 01 	lds	r26, 0x0102
     4c8:	b0 91 03 01 	lds	r27, 0x0103
     4cc:	80 93 7d 01 	sts	0x017D, r24
     4d0:	90 93 7e 01 	sts	0x017E, r25
     4d4:	a0 93 7f 01 	sts	0x017F, r26
     4d8:	b0 93 80 01 	sts	0x0180, r27
     4dc:	8f e5       	ldi	r24, 0x5F	; 95
     4de:	90 e0       	ldi	r25, 0x00	; 0
     4e0:	20 e8       	ldi	r18, 0x80	; 128
     4e2:	fc 01       	movw	r30, r24
     4e4:	20 83       	st	Z, r18
     4e6:	df 91       	pop	r29
     4e8:	cf 91       	pop	r28
     4ea:	08 95       	ret

000004ec <TimerISR>:

void TimerISR(){
     4ec:	cf 93       	push	r28
     4ee:	df 93       	push	r29
     4f0:	cd b7       	in	r28, 0x3d	; 61
     4f2:	de b7       	in	r29, 0x3e	; 62
    TimerFlag = 1;
     4f4:	81 e0       	ldi	r24, 0x01	; 1
     4f6:	80 93 7c 01 	sts	0x017C, r24
}
     4fa:	df 91       	pop	r29
     4fc:	cf 91       	pop	r28
     4fe:	08 95       	ret

00000500 <__vector_13>:

ISR(TIMER1_COMPA_vect){
     500:	1f 92       	push	r1
     502:	0f 92       	push	r0
     504:	00 90 5f 00 	lds	r0, 0x005F
     508:	0f 92       	push	r0
     50a:	11 24       	eor	r1, r1
     50c:	00 90 5b 00 	lds	r0, 0x005B
     510:	0f 92       	push	r0
     512:	2f 93       	push	r18
     514:	3f 93       	push	r19
     516:	4f 93       	push	r20
     518:	5f 93       	push	r21
     51a:	6f 93       	push	r22
     51c:	7f 93       	push	r23
     51e:	8f 93       	push	r24
     520:	9f 93       	push	r25
     522:	af 93       	push	r26
     524:	bf 93       	push	r27
     526:	ef 93       	push	r30
     528:	ff 93       	push	r31
     52a:	cf 93       	push	r28
     52c:	df 93       	push	r29
     52e:	cd b7       	in	r28, 0x3d	; 61
     530:	de b7       	in	r29, 0x3e	; 62
    _avr_timer_cntcurr--;
     532:	80 91 7d 01 	lds	r24, 0x017D
     536:	90 91 7e 01 	lds	r25, 0x017E
     53a:	a0 91 7f 01 	lds	r26, 0x017F
     53e:	b0 91 80 01 	lds	r27, 0x0180
     542:	01 97       	sbiw	r24, 0x01	; 1
     544:	a1 09       	sbc	r26, r1
     546:	b1 09       	sbc	r27, r1
     548:	80 93 7d 01 	sts	0x017D, r24
     54c:	90 93 7e 01 	sts	0x017E, r25
     550:	a0 93 7f 01 	sts	0x017F, r26
     554:	b0 93 80 01 	sts	0x0180, r27
    if(_avr_timer_cntcurr == 0){
     558:	80 91 7d 01 	lds	r24, 0x017D
     55c:	90 91 7e 01 	lds	r25, 0x017E
     560:	a0 91 7f 01 	lds	r26, 0x017F
     564:	b0 91 80 01 	lds	r27, 0x0180
     568:	00 97       	sbiw	r24, 0x00	; 0
     56a:	a1 05       	cpc	r26, r1
     56c:	b1 05       	cpc	r27, r1
     56e:	89 f4       	brne	.+34     	; 0x592 <__vector_13+0x92>
        TimerISR();
     570:	bd df       	rcall	.-134    	; 0x4ec <TimerISR>
        _avr_timer_cntcurr = _avr_timer_M;
     572:	80 91 00 01 	lds	r24, 0x0100
     576:	90 91 01 01 	lds	r25, 0x0101
     57a:	a0 91 02 01 	lds	r26, 0x0102
     57e:	b0 91 03 01 	lds	r27, 0x0103
     582:	80 93 7d 01 	sts	0x017D, r24
     586:	90 93 7e 01 	sts	0x017E, r25
     58a:	a0 93 7f 01 	sts	0x017F, r26
     58e:	b0 93 80 01 	sts	0x0180, r27
    }
}
     592:	df 91       	pop	r29
     594:	cf 91       	pop	r28
     596:	ff 91       	pop	r31
     598:	ef 91       	pop	r30
     59a:	bf 91       	pop	r27
     59c:	af 91       	pop	r26
     59e:	9f 91       	pop	r25
     5a0:	8f 91       	pop	r24
     5a2:	7f 91       	pop	r23
     5a4:	6f 91       	pop	r22
     5a6:	5f 91       	pop	r21
     5a8:	4f 91       	pop	r20
     5aa:	3f 91       	pop	r19
     5ac:	2f 91       	pop	r18
     5ae:	0f 90       	pop	r0
     5b0:	00 92 5b 00 	sts	0x005B, r0
     5b4:	0f 90       	pop	r0
     5b6:	00 92 5f 00 	sts	0x005F, r0
     5ba:	0f 90       	pop	r0
     5bc:	1f 90       	pop	r1
     5be:	18 95       	reti

000005c0 <TimerSet>:

void TimerSet(unsigned long M){
     5c0:	cf 93       	push	r28
     5c2:	df 93       	push	r29
     5c4:	00 d0       	rcall	.+0      	; 0x5c6 <TimerSet+0x6>
     5c6:	00 d0       	rcall	.+0      	; 0x5c8 <TimerSet+0x8>
     5c8:	cd b7       	in	r28, 0x3d	; 61
     5ca:	de b7       	in	r29, 0x3e	; 62
     5cc:	69 83       	std	Y+1, r22	; 0x01
     5ce:	7a 83       	std	Y+2, r23	; 0x02
     5d0:	8b 83       	std	Y+3, r24	; 0x03
     5d2:	9c 83       	std	Y+4, r25	; 0x04
    _avr_timer_M = M;
     5d4:	89 81       	ldd	r24, Y+1	; 0x01
     5d6:	9a 81       	ldd	r25, Y+2	; 0x02
     5d8:	ab 81       	ldd	r26, Y+3	; 0x03
     5da:	bc 81       	ldd	r27, Y+4	; 0x04
     5dc:	80 93 00 01 	sts	0x0100, r24
     5e0:	90 93 01 01 	sts	0x0101, r25
     5e4:	a0 93 02 01 	sts	0x0102, r26
     5e8:	b0 93 03 01 	sts	0x0103, r27
    _avr_timer_cntcurr = _avr_timer_M;
     5ec:	80 91 00 01 	lds	r24, 0x0100
     5f0:	90 91 01 01 	lds	r25, 0x0101
     5f4:	a0 91 02 01 	lds	r26, 0x0102
     5f8:	b0 91 03 01 	lds	r27, 0x0103
     5fc:	80 93 7d 01 	sts	0x017D, r24
     600:	90 93 7e 01 	sts	0x017E, r25
     604:	a0 93 7f 01 	sts	0x017F, r26
     608:	b0 93 80 01 	sts	0x0180, r27
}
     60c:	0f 90       	pop	r0
     60e:	0f 90       	pop	r0
     610:	0f 90       	pop	r0
     612:	0f 90       	pop	r0
     614:	df 91       	pop	r29
     616:	cf 91       	pop	r28
     618:	08 95       	ret

0000061a <delay>:

void delay(){
     61a:	cf 93       	push	r28
     61c:	df 93       	push	r29
     61e:	cd b7       	in	r28, 0x3d	; 61
     620:	de b7       	in	r29, 0x3e	; 62
    while(!TimerFlag);
     622:	00 00       	nop
     624:	80 91 7c 01 	lds	r24, 0x017C
     628:	88 23       	and	r24, r24
     62a:	e1 f3       	breq	.-8      	; 0x624 <delay+0xa>
        TimerFlag = 0;
     62c:	10 92 7c 01 	sts	0x017C, r1
     630:	df 91       	pop	r29
     632:	cf 91       	pop	r28
     634:	08 95       	ret

00000636 <findGCD>:
#include <avr/io.h>
#include <avr/eeprom.h>

unsigned long int findGCD(unsigned long a,
                          unsigned long b)
{
     636:	cf 93       	push	r28
     638:	df 93       	push	r29
     63a:	cd b7       	in	r28, 0x3d	; 61
     63c:	de b7       	in	r29, 0x3e	; 62
     63e:	60 97       	sbiw	r28, 0x10	; 16
     640:	0f b6       	in	r0, 0x3f	; 63
     642:	f8 94       	cli
     644:	de bf       	out	0x3e, r29	; 62
     646:	0f be       	out	0x3f, r0	; 63
     648:	cd bf       	out	0x3d, r28	; 61
     64a:	6d 83       	std	Y+5, r22	; 0x05
     64c:	7e 83       	std	Y+6, r23	; 0x06
     64e:	8f 83       	std	Y+7, r24	; 0x07
     650:	98 87       	std	Y+8, r25	; 0x08
     652:	29 87       	std	Y+9, r18	; 0x09
     654:	3a 87       	std	Y+10, r19	; 0x0a
     656:	4b 87       	std	Y+11, r20	; 0x0b
     658:	5c 87       	std	Y+12, r21	; 0x0c
    unsigned long int c;
    while(1){
        c = a%b;
     65a:	8d 81       	ldd	r24, Y+5	; 0x05
     65c:	9e 81       	ldd	r25, Y+6	; 0x06
     65e:	af 81       	ldd	r26, Y+7	; 0x07
     660:	b8 85       	ldd	r27, Y+8	; 0x08
     662:	29 85       	ldd	r18, Y+9	; 0x09
     664:	3a 85       	ldd	r19, Y+10	; 0x0a
     666:	4b 85       	ldd	r20, Y+11	; 0x0b
     668:	5c 85       	ldd	r21, Y+12	; 0x0c
     66a:	bc 01       	movw	r22, r24
     66c:	cd 01       	movw	r24, r26
     66e:	0e 94 90 0d 	call	0x1b20	; 0x1b20 <__udivmodsi4>
     672:	dc 01       	movw	r26, r24
     674:	cb 01       	movw	r24, r22
     676:	89 83       	std	Y+1, r24	; 0x01
     678:	9a 83       	std	Y+2, r25	; 0x02
     67a:	ab 83       	std	Y+3, r26	; 0x03
     67c:	bc 83       	std	Y+4, r27	; 0x04
        if(c == 0){
     67e:	89 81       	ldd	r24, Y+1	; 0x01
     680:	9a 81       	ldd	r25, Y+2	; 0x02
     682:	ab 81       	ldd	r26, Y+3	; 0x03
     684:	bc 81       	ldd	r27, Y+4	; 0x04
     686:	00 97       	sbiw	r24, 0x00	; 0
     688:	a1 05       	cpc	r26, r1
     68a:	b1 05       	cpc	r27, r1
     68c:	29 f4       	brne	.+10     	; 0x698 <findGCD+0x62>
            return b;
     68e:	89 85       	ldd	r24, Y+9	; 0x09
     690:	9a 85       	ldd	r25, Y+10	; 0x0a
     692:	ab 85       	ldd	r26, Y+11	; 0x0b
     694:	bc 85       	ldd	r27, Y+12	; 0x0c
     696:	11 c0       	rjmp	.+34     	; 0x6ba <findGCD+0x84>
        }
        a = b;
     698:	89 85       	ldd	r24, Y+9	; 0x09
     69a:	9a 85       	ldd	r25, Y+10	; 0x0a
     69c:	ab 85       	ldd	r26, Y+11	; 0x0b
     69e:	bc 85       	ldd	r27, Y+12	; 0x0c
     6a0:	8d 83       	std	Y+5, r24	; 0x05
     6a2:	9e 83       	std	Y+6, r25	; 0x06
     6a4:	af 83       	std	Y+7, r26	; 0x07
     6a6:	b8 87       	std	Y+8, r27	; 0x08
        b = c;
     6a8:	89 81       	ldd	r24, Y+1	; 0x01
     6aa:	9a 81       	ldd	r25, Y+2	; 0x02
     6ac:	ab 81       	ldd	r26, Y+3	; 0x03
     6ae:	bc 81       	ldd	r27, Y+4	; 0x04
     6b0:	89 87       	std	Y+9, r24	; 0x09
     6b2:	9a 87       	std	Y+10, r25	; 0x0a
     6b4:	ab 87       	std	Y+11, r26	; 0x0b
     6b6:	bc 87       	std	Y+12, r27	; 0x0c
    }
     6b8:	d0 cf       	rjmp	.-96     	; 0x65a <findGCD+0x24>
    return 0;
}
     6ba:	bc 01       	movw	r22, r24
     6bc:	cd 01       	movw	r24, r26
     6be:	60 96       	adiw	r28, 0x10	; 16
     6c0:	0f b6       	in	r0, 0x3f	; 63
     6c2:	f8 94       	cli
     6c4:	de bf       	out	0x3e, r29	; 62
     6c6:	0f be       	out	0x3f, r0	; 63
     6c8:	cd bf       	out	0x3d, r28	; 61
     6ca:	df 91       	pop	r29
     6cc:	cf 91       	pop	r28
     6ce:	08 95       	ret

000006d0 <char_to_string>:

unsigned char* char_to_string(unsigned char val, unsigned char string[])
{
     6d0:	cf 93       	push	r28
     6d2:	df 93       	push	r29
     6d4:	cd b7       	in	r28, 0x3d	; 61
     6d6:	de b7       	in	r29, 0x3e	; 62
     6d8:	6a 97       	sbiw	r28, 0x1a	; 26
     6da:	0f b6       	in	r0, 0x3f	; 63
     6dc:	f8 94       	cli
     6de:	de bf       	out	0x3e, r29	; 62
     6e0:	0f be       	out	0x3f, r0	; 63
     6e2:	cd bf       	out	0x3d, r28	; 61
     6e4:	8a 8b       	std	Y+18, r24	; 0x12
     6e6:	7c 8b       	std	Y+20, r23	; 0x14
     6e8:	6b 8b       	std	Y+19, r22	; 0x13
    char const nums[] = "0123456789";
     6ea:	8b e0       	ldi	r24, 0x0B	; 11
     6ec:	e3 e6       	ldi	r30, 0x63	; 99
     6ee:	f1 e0       	ldi	r31, 0x01	; 1
     6f0:	de 01       	movw	r26, r28
     6f2:	17 96       	adiw	r26, 0x07	; 7
     6f4:	01 90       	ld	r0, Z+
     6f6:	0d 92       	st	X+, r0
     6f8:	8a 95       	dec	r24
     6fa:	e1 f7       	brne	.-8      	; 0x6f4 <char_to_string+0x24>
    unsigned char* num = string;
     6fc:	8b 89       	ldd	r24, Y+19	; 0x13
     6fe:	9c 89       	ldd	r25, Y+20	; 0x14
     700:	9e 83       	std	Y+6, r25	; 0x06
     702:	8d 83       	std	Y+5, r24	; 0x05
    int divisor = 100;
     704:	84 e6       	ldi	r24, 0x64	; 100
     706:	90 e0       	ldi	r25, 0x00	; 0
     708:	9a 83       	std	Y+2, r25	; 0x02
     70a:	89 83       	std	Y+1, r24	; 0x01
    int i;
    for(i = 0; i < 3; ++i){
     70c:	1c 82       	std	Y+4, r1	; 0x04
     70e:	1b 82       	std	Y+3, r1	; 0x03
     710:	30 c0       	rjmp	.+96     	; 0x772 <char_to_string+0xa2>
        num[i] = nums[val / divisor];
     712:	8b 81       	ldd	r24, Y+3	; 0x03
     714:	9c 81       	ldd	r25, Y+4	; 0x04
     716:	2d 81       	ldd	r18, Y+5	; 0x05
     718:	3e 81       	ldd	r19, Y+6	; 0x06
     71a:	28 0f       	add	r18, r24
     71c:	39 1f       	adc	r19, r25
     71e:	8a 89       	ldd	r24, Y+18	; 0x12
     720:	88 2f       	mov	r24, r24
     722:	90 e0       	ldi	r25, 0x00	; 0
     724:	49 81       	ldd	r20, Y+1	; 0x01
     726:	5a 81       	ldd	r21, Y+2	; 0x02
     728:	ba 01       	movw	r22, r20
     72a:	0e 94 7d 0d 	call	0x1afa	; 0x1afa <__divmodhi4>
     72e:	cb 01       	movw	r24, r22
     730:	ae 01       	movw	r20, r28
     732:	49 5f       	subi	r20, 0xF9	; 249
     734:	5f 4f       	sbci	r21, 0xFF	; 255
     736:	84 0f       	add	r24, r20
     738:	95 1f       	adc	r25, r21
     73a:	fc 01       	movw	r30, r24
     73c:	80 81       	ld	r24, Z
     73e:	f9 01       	movw	r30, r18
     740:	80 83       	st	Z, r24
        val = val%divisor;
     742:	8a 89       	ldd	r24, Y+18	; 0x12
     744:	88 2f       	mov	r24, r24
     746:	90 e0       	ldi	r25, 0x00	; 0
     748:	29 81       	ldd	r18, Y+1	; 0x01
     74a:	3a 81       	ldd	r19, Y+2	; 0x02
     74c:	b9 01       	movw	r22, r18
     74e:	0e 94 7d 0d 	call	0x1afa	; 0x1afa <__divmodhi4>
     752:	8a 8b       	std	Y+18, r24	; 0x12
        divisor = divisor/10;
     754:	89 81       	ldd	r24, Y+1	; 0x01
     756:	9a 81       	ldd	r25, Y+2	; 0x02
     758:	2a e0       	ldi	r18, 0x0A	; 10
     75a:	30 e0       	ldi	r19, 0x00	; 0
     75c:	b9 01       	movw	r22, r18
     75e:	0e 94 7d 0d 	call	0x1afa	; 0x1afa <__divmodhi4>
     762:	cb 01       	movw	r24, r22
     764:	9a 83       	std	Y+2, r25	; 0x02
     766:	89 83       	std	Y+1, r24	; 0x01
{
    char const nums[] = "0123456789";
    unsigned char* num = string;
    int divisor = 100;
    int i;
    for(i = 0; i < 3; ++i){
     768:	8b 81       	ldd	r24, Y+3	; 0x03
     76a:	9c 81       	ldd	r25, Y+4	; 0x04
     76c:	01 96       	adiw	r24, 0x01	; 1
     76e:	9c 83       	std	Y+4, r25	; 0x04
     770:	8b 83       	std	Y+3, r24	; 0x03
     772:	8b 81       	ldd	r24, Y+3	; 0x03
     774:	9c 81       	ldd	r25, Y+4	; 0x04
     776:	83 30       	cpi	r24, 0x03	; 3
     778:	91 05       	cpc	r25, r1
     77a:	5c f2       	brlt	.-106    	; 0x712 <char_to_string+0x42>
        num[i] = nums[val / divisor];
        val = val%divisor;
        divisor = divisor/10;
    }
    num[i] = '\0';
     77c:	8b 81       	ldd	r24, Y+3	; 0x03
     77e:	9c 81       	ldd	r25, Y+4	; 0x04
     780:	2d 81       	ldd	r18, Y+5	; 0x05
     782:	3e 81       	ldd	r19, Y+6	; 0x06
     784:	82 0f       	add	r24, r18
     786:	93 1f       	adc	r25, r19
     788:	fc 01       	movw	r30, r24
     78a:	10 82       	st	Z, r1
    return num;
     78c:	8d 81       	ldd	r24, Y+5	; 0x05
     78e:	9e 81       	ldd	r25, Y+6	; 0x06
}
     790:	6a 96       	adiw	r28, 0x1a	; 26
     792:	0f b6       	in	r0, 0x3f	; 63
     794:	f8 94       	cli
     796:	de bf       	out	0x3e, r29	; 62
     798:	0f be       	out	0x3f, r0	; 63
     79a:	cd bf       	out	0x3d, r28	; 61
     79c:	df 91       	pop	r29
     79e:	cf 91       	pop	r28
     7a0:	08 95       	ret

000007a2 <transmit_data_cols>:


void transmit_data_cols(unsigned char data) {
     7a2:	cf 93       	push	r28
     7a4:	df 93       	push	r29
     7a6:	00 d0       	rcall	.+0      	; 0x7a8 <transmit_data_cols+0x6>
     7a8:	1f 92       	push	r1
     7aa:	cd b7       	in	r28, 0x3d	; 61
     7ac:	de b7       	in	r29, 0x3e	; 62
     7ae:	8b 83       	std	Y+3, r24	; 0x03
    int i;
    for (i = 0; i < 8 ; ++i) {
     7b0:	1a 82       	std	Y+2, r1	; 0x02
     7b2:	19 82       	std	Y+1, r1	; 0x01
     7b4:	27 c0       	rjmp	.+78     	; 0x804 <transmit_data_cols+0x62>
        // Sets SRCLR to 1 allowing data to be set
        // Also clears SRCLK in preparation of sending data
        PORTB = 0x08;
     7b6:	85 e2       	ldi	r24, 0x25	; 37
     7b8:	90 e0       	ldi	r25, 0x00	; 0
     7ba:	28 e0       	ldi	r18, 0x08	; 8
     7bc:	fc 01       	movw	r30, r24
     7be:	20 83       	st	Z, r18
        // set SER = next bit of data to be sent.
        PORTB |= ((data >> i) & 0x01);
     7c0:	85 e2       	ldi	r24, 0x25	; 37
     7c2:	90 e0       	ldi	r25, 0x00	; 0
     7c4:	25 e2       	ldi	r18, 0x25	; 37
     7c6:	30 e0       	ldi	r19, 0x00	; 0
     7c8:	f9 01       	movw	r30, r18
     7ca:	20 81       	ld	r18, Z
     7cc:	42 2f       	mov	r20, r18
     7ce:	2b 81       	ldd	r18, Y+3	; 0x03
     7d0:	22 2f       	mov	r18, r18
     7d2:	30 e0       	ldi	r19, 0x00	; 0
     7d4:	09 80       	ldd	r0, Y+1	; 0x01
     7d6:	02 c0       	rjmp	.+4      	; 0x7dc <transmit_data_cols+0x3a>
     7d8:	35 95       	asr	r19
     7da:	27 95       	ror	r18
     7dc:	0a 94       	dec	r0
     7de:	e2 f7       	brpl	.-8      	; 0x7d8 <transmit_data_cols+0x36>
     7e0:	21 70       	andi	r18, 0x01	; 1
     7e2:	24 2b       	or	r18, r20
     7e4:	fc 01       	movw	r30, r24
     7e6:	20 83       	st	Z, r18
        // set SRCLK = 1. Rising edge shifts next bit of data into the shift register
        PORTB |= 0x02;
     7e8:	85 e2       	ldi	r24, 0x25	; 37
     7ea:	90 e0       	ldi	r25, 0x00	; 0
     7ec:	25 e2       	ldi	r18, 0x25	; 37
     7ee:	30 e0       	ldi	r19, 0x00	; 0
     7f0:	f9 01       	movw	r30, r18
     7f2:	20 81       	ld	r18, Z
     7f4:	22 60       	ori	r18, 0x02	; 2
     7f6:	fc 01       	movw	r30, r24
     7f8:	20 83       	st	Z, r18
}


void transmit_data_cols(unsigned char data) {
    int i;
    for (i = 0; i < 8 ; ++i) {
     7fa:	89 81       	ldd	r24, Y+1	; 0x01
     7fc:	9a 81       	ldd	r25, Y+2	; 0x02
     7fe:	01 96       	adiw	r24, 0x01	; 1
     800:	9a 83       	std	Y+2, r25	; 0x02
     802:	89 83       	std	Y+1, r24	; 0x01
     804:	89 81       	ldd	r24, Y+1	; 0x01
     806:	9a 81       	ldd	r25, Y+2	; 0x02
     808:	88 30       	cpi	r24, 0x08	; 8
     80a:	91 05       	cpc	r25, r1
     80c:	a4 f2       	brlt	.-88     	; 0x7b6 <transmit_data_cols+0x14>
        PORTB |= ((data >> i) & 0x01);
        // set SRCLK = 1. Rising edge shifts next bit of data into the shift register
        PORTB |= 0x02;
    }
    // set RCLK = 1. Rising edge copies data from “Shift” register to “Storage” register
    PORTB |= 0x04;
     80e:	85 e2       	ldi	r24, 0x25	; 37
     810:	90 e0       	ldi	r25, 0x00	; 0
     812:	25 e2       	ldi	r18, 0x25	; 37
     814:	30 e0       	ldi	r19, 0x00	; 0
     816:	f9 01       	movw	r30, r18
     818:	20 81       	ld	r18, Z
     81a:	24 60       	ori	r18, 0x04	; 4
     81c:	fc 01       	movw	r30, r24
     81e:	20 83       	st	Z, r18
    // clears all lines in preparation of a new transmission
    PORTB = 0x00;
     820:	85 e2       	ldi	r24, 0x25	; 37
     822:	90 e0       	ldi	r25, 0x00	; 0
     824:	fc 01       	movw	r30, r24
     826:	10 82       	st	Z, r1
}
     828:	0f 90       	pop	r0
     82a:	0f 90       	pop	r0
     82c:	0f 90       	pop	r0
     82e:	df 91       	pop	r29
     830:	cf 91       	pop	r28
     832:	08 95       	ret

00000834 <transmit_data_rows>:

void transmit_data_rows(unsigned char data) {
     834:	cf 93       	push	r28
     836:	df 93       	push	r29
     838:	00 d0       	rcall	.+0      	; 0x83a <transmit_data_rows+0x6>
     83a:	1f 92       	push	r1
     83c:	cd b7       	in	r28, 0x3d	; 61
     83e:	de b7       	in	r29, 0x3e	; 62
     840:	8b 83       	std	Y+3, r24	; 0x03
    int i;
    for (i = 0; i < 8 ; ++i) {
     842:	1a 82       	std	Y+2, r1	; 0x02
     844:	19 82       	std	Y+1, r1	; 0x01
     846:	27 c0       	rjmp	.+78     	; 0x896 <transmit_data_rows+0x62>
        // Sets SRCLR to 1 allowing data to be set
        // Also clears SRCLK in preparation of sending data
        PORTC = 0x08;
     848:	88 e2       	ldi	r24, 0x28	; 40
     84a:	90 e0       	ldi	r25, 0x00	; 0
     84c:	28 e0       	ldi	r18, 0x08	; 8
     84e:	fc 01       	movw	r30, r24
     850:	20 83       	st	Z, r18
        // set SER = next bit of data to be sent.
        PORTC |= ((data >> i) & 0x01);
     852:	88 e2       	ldi	r24, 0x28	; 40
     854:	90 e0       	ldi	r25, 0x00	; 0
     856:	28 e2       	ldi	r18, 0x28	; 40
     858:	30 e0       	ldi	r19, 0x00	; 0
     85a:	f9 01       	movw	r30, r18
     85c:	20 81       	ld	r18, Z
     85e:	42 2f       	mov	r20, r18
     860:	2b 81       	ldd	r18, Y+3	; 0x03
     862:	22 2f       	mov	r18, r18
     864:	30 e0       	ldi	r19, 0x00	; 0
     866:	09 80       	ldd	r0, Y+1	; 0x01
     868:	02 c0       	rjmp	.+4      	; 0x86e <transmit_data_rows+0x3a>
     86a:	35 95       	asr	r19
     86c:	27 95       	ror	r18
     86e:	0a 94       	dec	r0
     870:	e2 f7       	brpl	.-8      	; 0x86a <transmit_data_rows+0x36>
     872:	21 70       	andi	r18, 0x01	; 1
     874:	24 2b       	or	r18, r20
     876:	fc 01       	movw	r30, r24
     878:	20 83       	st	Z, r18
        // set SRCLK = 1. Rising edge shifts next bit of data into the shift register
        PORTC |= 0x02;
     87a:	88 e2       	ldi	r24, 0x28	; 40
     87c:	90 e0       	ldi	r25, 0x00	; 0
     87e:	28 e2       	ldi	r18, 0x28	; 40
     880:	30 e0       	ldi	r19, 0x00	; 0
     882:	f9 01       	movw	r30, r18
     884:	20 81       	ld	r18, Z
     886:	22 60       	ori	r18, 0x02	; 2
     888:	fc 01       	movw	r30, r24
     88a:	20 83       	st	Z, r18
    PORTB = 0x00;
}

void transmit_data_rows(unsigned char data) {
    int i;
    for (i = 0; i < 8 ; ++i) {
     88c:	89 81       	ldd	r24, Y+1	; 0x01
     88e:	9a 81       	ldd	r25, Y+2	; 0x02
     890:	01 96       	adiw	r24, 0x01	; 1
     892:	9a 83       	std	Y+2, r25	; 0x02
     894:	89 83       	std	Y+1, r24	; 0x01
     896:	89 81       	ldd	r24, Y+1	; 0x01
     898:	9a 81       	ldd	r25, Y+2	; 0x02
     89a:	88 30       	cpi	r24, 0x08	; 8
     89c:	91 05       	cpc	r25, r1
     89e:	a4 f2       	brlt	.-88     	; 0x848 <transmit_data_rows+0x14>
        PORTC |= ((data >> i) & 0x01);
        // set SRCLK = 1. Rising edge shifts next bit of data into the shift register
        PORTC |= 0x02;
    }
    // set RCLK = 1. Rising edge copies data from “Shift” register to “Storage” register
    PORTC |= 0x04;
     8a0:	88 e2       	ldi	r24, 0x28	; 40
     8a2:	90 e0       	ldi	r25, 0x00	; 0
     8a4:	28 e2       	ldi	r18, 0x28	; 40
     8a6:	30 e0       	ldi	r19, 0x00	; 0
     8a8:	f9 01       	movw	r30, r18
     8aa:	20 81       	ld	r18, Z
     8ac:	24 60       	ori	r18, 0x04	; 4
     8ae:	fc 01       	movw	r30, r24
     8b0:	20 83       	st	Z, r18
    // clears all lines in preparation of a new transmission
    PORTC = 0x00;
     8b2:	88 e2       	ldi	r24, 0x28	; 40
     8b4:	90 e0       	ldi	r25, 0x00	; 0
     8b6:	fc 01       	movw	r30, r24
     8b8:	10 82       	st	Z, r1
}
     8ba:	0f 90       	pop	r0
     8bc:	0f 90       	pop	r0
     8be:	0f 90       	pop	r0
     8c0:	df 91       	pop	r29
     8c2:	cf 91       	pop	r28
     8c4:	08 95       	ret

000008c6 <SMTick1>:
uint8_t high_score;


enum SM1_States { SM1_init, SM1_wait};

int SMTick1(int state){
     8c6:	cf 93       	push	r28
     8c8:	df 93       	push	r29
     8ca:	00 d0       	rcall	.+0      	; 0x8cc <SMTick1+0x6>
     8cc:	cd b7       	in	r28, 0x3d	; 61
     8ce:	de b7       	in	r29, 0x3e	; 62
     8d0:	9a 83       	std	Y+2, r25	; 0x02
     8d2:	89 83       	std	Y+1, r24	; 0x01
    
    switch(state){
     8d4:	89 81       	ldd	r24, Y+1	; 0x01
     8d6:	9a 81       	ldd	r25, Y+2	; 0x02
     8d8:	00 97       	sbiw	r24, 0x00	; 0
     8da:	21 f0       	breq	.+8      	; 0x8e4 <SMTick1+0x1e>
     8dc:	81 30       	cpi	r24, 0x01	; 1
     8de:	91 05       	cpc	r25, r1
     8e0:	31 f0       	breq	.+12     	; 0x8ee <SMTick1+0x28>
     8e2:	0a c0       	rjmp	.+20     	; 0x8f8 <SMTick1+0x32>
        case SM1_init:
            state = SM1_wait;
     8e4:	81 e0       	ldi	r24, 0x01	; 1
     8e6:	90 e0       	ldi	r25, 0x00	; 0
     8e8:	9a 83       	std	Y+2, r25	; 0x02
     8ea:	89 83       	std	Y+1, r24	; 0x01
            break;
     8ec:	08 c0       	rjmp	.+16     	; 0x8fe <SMTick1+0x38>
         case SM1_wait:
             state = SM1_wait;
     8ee:	81 e0       	ldi	r24, 0x01	; 1
     8f0:	90 e0       	ldi	r25, 0x00	; 0
     8f2:	9a 83       	std	Y+2, r25	; 0x02
     8f4:	89 83       	std	Y+1, r24	; 0x01
            break;
     8f6:	03 c0       	rjmp	.+6      	; 0x8fe <SMTick1+0x38>
        default:
            state = SM1_init;
     8f8:	1a 82       	std	Y+2, r1	; 0x02
     8fa:	19 82       	std	Y+1, r1	; 0x01
            break;
     8fc:	00 00       	nop
    }
    switch(state){
     8fe:	89 81       	ldd	r24, Y+1	; 0x01
     900:	9a 81       	ldd	r25, Y+2	; 0x02
     902:	00 97       	sbiw	r24, 0x00	; 0
     904:	21 f0       	breq	.+8      	; 0x90e <SMTick1+0x48>
     906:	81 30       	cpi	r24, 0x01	; 1
     908:	91 05       	cpc	r25, r1
     90a:	41 f0       	breq	.+16     	; 0x91c <SMTick1+0x56>
                high_score = 0;
                eeprom_update_byte(&ScoreChar, high_score);
            }
            break;
        default:
             break;
     90c:	35 c0       	rjmp	.+106    	; 0x978 <SMTick1+0xb2>
            state = SM1_init;
            break;
    }
    switch(state){
	    case SM1_init:
            high_score = eeprom_read_byte(&ScoreChar);
     90e:	80 e0       	ldi	r24, 0x00	; 0
     910:	90 e0       	ldi	r25, 0x00	; 0
     912:	0e 94 cc 0d 	call	0x1b98	; 0x1b98 <__eerd_byte_m1284p>
     916:	80 93 fc 01 	sts	0x01FC, r24
            break;
     91a:	2e c0       	rjmp	.+92     	; 0x978 <SMTick1+0xb2>
        case SM1_wait:
            if(game_over_g){
     91c:	80 91 97 01 	lds	r24, 0x0197
     920:	88 23       	and	r24, r24
     922:	b9 f0       	breq	.+46     	; 0x952 <SMTick1+0x8c>
                if(score > high_score){
     924:	90 91 98 01 	lds	r25, 0x0198
     928:	80 91 fc 01 	lds	r24, 0x01FC
     92c:	89 17       	cp	r24, r25
     92e:	78 f4       	brcc	.+30     	; 0x94e <SMTick1+0x88>
                    display_low_or_high = 1;
     930:	81 e0       	ldi	r24, 0x01	; 1
     932:	80 93 a2 01 	sts	0x01A2, r24
                    high_score = (uint8_t) score;
     936:	80 91 98 01 	lds	r24, 0x0198
     93a:	80 93 fc 01 	sts	0x01FC, r24
                    eeprom_update_byte(&ScoreChar, high_score);
     93e:	80 91 fc 01 	lds	r24, 0x01FC
     942:	68 2f       	mov	r22, r24
     944:	80 e0       	ldi	r24, 0x00	; 0
     946:	90 e0       	ldi	r25, 0x00	; 0
     948:	0e 94 d4 0d 	call	0x1ba8	; 0x1ba8 <__eeupd_byte_m1284p>
     94c:	02 c0       	rjmp	.+4      	; 0x952 <SMTick1+0x8c>
                }
                else{
                    display_low_or_high = 0;
     94e:	10 92 a2 01 	sts	0x01A2, r1
                }
            }

            if((paused_g == 1) && shoot_button_g){
     952:	80 91 94 01 	lds	r24, 0x0194
     956:	81 30       	cpi	r24, 0x01	; 1
     958:	71 f4       	brne	.+28     	; 0x976 <SMTick1+0xb0>
     95a:	80 91 88 01 	lds	r24, 0x0188
     95e:	88 23       	and	r24, r24
     960:	51 f0       	breq	.+20     	; 0x976 <SMTick1+0xb0>
                high_score = 0;
     962:	10 92 fc 01 	sts	0x01FC, r1
                eeprom_update_byte(&ScoreChar, high_score);
     966:	80 91 fc 01 	lds	r24, 0x01FC
     96a:	68 2f       	mov	r22, r24
     96c:	80 e0       	ldi	r24, 0x00	; 0
     96e:	90 e0       	ldi	r25, 0x00	; 0
     970:	0e 94 d4 0d 	call	0x1ba8	; 0x1ba8 <__eeupd_byte_m1284p>
            }
            break;
     974:	00 c0       	rjmp	.+0      	; 0x976 <SMTick1+0xb0>
     976:	00 00       	nop
        default:
             break;
    }
    return state;
     978:	89 81       	ldd	r24, Y+1	; 0x01
     97a:	9a 81       	ldd	r25, Y+2	; 0x02
}
     97c:	0f 90       	pop	r0
     97e:	0f 90       	pop	r0
     980:	df 91       	pop	r29
     982:	cf 91       	pop	r28
     984:	08 95       	ret

00000986 <SMTick2>:

enum SM2_States { SM2_init, SM2_display, SM2_display_off };

int SMTick2(int state){
     986:	cf 93       	push	r28
     988:	df 93       	push	r29
     98a:	00 d0       	rcall	.+0      	; 0x98c <SMTick2+0x6>
     98c:	cd b7       	in	r28, 0x3d	; 61
     98e:	de b7       	in	r29, 0x3e	; 62
     990:	9a 83       	std	Y+2, r25	; 0x02
     992:	89 83       	std	Y+1, r24	; 0x01
    switch(state){
     994:	89 81       	ldd	r24, Y+1	; 0x01
     996:	9a 81       	ldd	r25, Y+2	; 0x02
     998:	81 30       	cpi	r24, 0x01	; 1
     99a:	91 05       	cpc	r25, r1
     99c:	51 f0       	breq	.+20     	; 0x9b2 <SMTick2+0x2c>
     99e:	82 30       	cpi	r24, 0x02	; 2
     9a0:	91 05       	cpc	r25, r1
     9a2:	89 f0       	breq	.+34     	; 0x9c6 <SMTick2+0x40>
     9a4:	00 97       	sbiw	r24, 0x00	; 0
     9a6:	c9 f4       	brne	.+50     	; 0x9da <SMTick2+0x54>
        case SM2_init:
            state = SM2_display;
     9a8:	81 e0       	ldi	r24, 0x01	; 1
     9aa:	90 e0       	ldi	r25, 0x00	; 0
     9ac:	9a 83       	std	Y+2, r25	; 0x02
     9ae:	89 83       	std	Y+1, r24	; 0x01
            break;
     9b0:	17 c0       	rjmp	.+46     	; 0x9e0 <SMTick2+0x5a>
        case SM2_display:
            if(paused_g){
     9b2:	80 91 94 01 	lds	r24, 0x0194
     9b6:	88 23       	and	r24, r24
     9b8:	29 f0       	breq	.+10     	; 0x9c4 <SMTick2+0x3e>
                state = SM2_display_off;
     9ba:	82 e0       	ldi	r24, 0x02	; 2
     9bc:	90 e0       	ldi	r25, 0x00	; 0
     9be:	9a 83       	std	Y+2, r25	; 0x02
     9c0:	89 83       	std	Y+1, r24	; 0x01
            }
            break;
     9c2:	0e c0       	rjmp	.+28     	; 0x9e0 <SMTick2+0x5a>
     9c4:	0d c0       	rjmp	.+26     	; 0x9e0 <SMTick2+0x5a>
        case SM2_display_off:
            if(!paused_g){
     9c6:	80 91 94 01 	lds	r24, 0x0194
     9ca:	88 23       	and	r24, r24
     9cc:	29 f4       	brne	.+10     	; 0x9d8 <SMTick2+0x52>
                state = SM2_display;
     9ce:	81 e0       	ldi	r24, 0x01	; 1
     9d0:	90 e0       	ldi	r25, 0x00	; 0
     9d2:	9a 83       	std	Y+2, r25	; 0x02
     9d4:	89 83       	std	Y+1, r24	; 0x01
            }
            break;
     9d6:	04 c0       	rjmp	.+8      	; 0x9e0 <SMTick2+0x5a>
     9d8:	03 c0       	rjmp	.+6      	; 0x9e0 <SMTick2+0x5a>
        default:
            state = SM2_init;
     9da:	1a 82       	std	Y+2, r1	; 0x02
     9dc:	19 82       	std	Y+1, r1	; 0x01
            break;
     9de:	00 00       	nop
    }
    switch (state){
     9e0:	89 81       	ldd	r24, Y+1	; 0x01
     9e2:	9a 81       	ldd	r25, Y+2	; 0x02
     9e4:	81 30       	cpi	r24, 0x01	; 1
     9e6:	91 05       	cpc	r25, r1
     9e8:	41 f0       	breq	.+16     	; 0x9fa <SMTick2+0x74>
     9ea:	82 30       	cpi	r24, 0x02	; 2
     9ec:	91 05       	cpc	r25, r1
     9ee:	09 f4       	brne	.+2      	; 0x9f2 <SMTick2+0x6c>
     9f0:	34 c0       	rjmp	.+104    	; 0xa5a <SMTick2+0xd4>
     9f2:	00 97       	sbiw	r24, 0x00	; 0
     9f4:	09 f4       	brne	.+2      	; 0x9f8 <SMTick2+0x72>
     9f6:	36 c0       	rjmp	.+108    	; 0xa64 <SMTick2+0xde>
        case SM2_display_off:
            transmit_data_rows(0);
            transmit_data_cols(255);
            break;
        default:
            break;
     9f8:	36 c0       	rjmp	.+108    	; 0xa66 <SMTick2+0xe0>
    }
    switch (state){
        case SM2_init:
            break;
        case SM2_display:
            row_g = 1;
     9fa:	81 e0       	ldi	r24, 0x01	; 1
     9fc:	80 93 05 01 	sts	0x0105, r24
            col_g = ~(player_pos_g);
     a00:	80 91 06 01 	lds	r24, 0x0106
     a04:	80 95       	com	r24
     a06:	80 93 04 01 	sts	0x0104, r24
            transmit_data_rows(row_g);
     a0a:	80 91 05 01 	lds	r24, 0x0105
     a0e:	12 df       	rcall	.-476    	; 0x834 <transmit_data_rows>
            transmit_data_cols(col_g);
     a10:	80 91 04 01 	lds	r24, 0x0104
     a14:	c6 de       	rcall	.-628    	; 0x7a2 <transmit_data_cols>
            delay();
     a16:	01 de       	rcall	.-1022   	; 0x61a <delay>
            transmit_data_rows(bullet_y_g);
     a18:	80 91 87 01 	lds	r24, 0x0187
     a1c:	0b df       	rcall	.-490    	; 0x834 <transmit_data_rows>
            transmit_data_cols(~bullet_x_g);
     a1e:	80 91 86 01 	lds	r24, 0x0186
     a22:	80 95       	com	r24
     a24:	be de       	rcall	.-644    	; 0x7a2 <transmit_data_cols>
            delay();
     a26:	f9 dd       	rcall	.-1038   	; 0x61a <delay>
            transmit_data_rows(enemy_row[0]);
     a28:	80 91 8d 01 	lds	r24, 0x018D
     a2c:	03 df       	rcall	.-506    	; 0x834 <transmit_data_rows>
            transmit_data_cols(~enemy_col[0]);
     a2e:	80 91 8a 01 	lds	r24, 0x018A
     a32:	80 95       	com	r24
     a34:	b6 de       	rcall	.-660    	; 0x7a2 <transmit_data_cols>
            delay();
     a36:	f1 dd       	rcall	.-1054   	; 0x61a <delay>
            transmit_data_rows(enemy_row[1]);
     a38:	80 91 8e 01 	lds	r24, 0x018E
     a3c:	fb de       	rcall	.-522    	; 0x834 <transmit_data_rows>
            transmit_data_cols(~enemy_col[1]);
     a3e:	80 91 8b 01 	lds	r24, 0x018B
     a42:	80 95       	com	r24
     a44:	ae de       	rcall	.-676    	; 0x7a2 <transmit_data_cols>
            delay();
     a46:	e9 dd       	rcall	.-1070   	; 0x61a <delay>
            transmit_data_rows(enemy_row[2]);
     a48:	80 91 8f 01 	lds	r24, 0x018F
     a4c:	f3 de       	rcall	.-538    	; 0x834 <transmit_data_rows>
            transmit_data_cols(~enemy_col[2]);
     a4e:	80 91 8c 01 	lds	r24, 0x018C
     a52:	80 95       	com	r24
     a54:	a6 de       	rcall	.-692    	; 0x7a2 <transmit_data_cols>
            delay();
     a56:	e1 dd       	rcall	.-1086   	; 0x61a <delay>
            break;
     a58:	06 c0       	rjmp	.+12     	; 0xa66 <SMTick2+0xe0>
        case SM2_display_off:
            transmit_data_rows(0);
     a5a:	80 e0       	ldi	r24, 0x00	; 0
     a5c:	eb de       	rcall	.-554    	; 0x834 <transmit_data_rows>
            transmit_data_cols(255);
     a5e:	8f ef       	ldi	r24, 0xFF	; 255
     a60:	a0 de       	rcall	.-704    	; 0x7a2 <transmit_data_cols>
            break;
     a62:	01 c0       	rjmp	.+2      	; 0xa66 <SMTick2+0xe0>
            state = SM2_init;
            break;
    }
    switch (state){
        case SM2_init:
            break;
     a64:	00 00       	nop
            transmit_data_cols(255);
            break;
        default:
            break;
    }
    return state;
     a66:	89 81       	ldd	r24, Y+1	; 0x01
     a68:	9a 81       	ldd	r25, Y+2	; 0x02
}
     a6a:	0f 90       	pop	r0
     a6c:	0f 90       	pop	r0
     a6e:	df 91       	pop	r29
     a70:	cf 91       	pop	r28
     a72:	08 95       	ret

00000a74 <SMTick3>:


enum SM3_States{SM3_init, SM3_no_press, SM3_left, SM3_right};
int SMTick3(int state){
     a74:	cf 93       	push	r28
     a76:	df 93       	push	r29
     a78:	00 d0       	rcall	.+0      	; 0xa7a <SMTick3+0x6>
     a7a:	cd b7       	in	r28, 0x3d	; 61
     a7c:	de b7       	in	r29, 0x3e	; 62
     a7e:	9a 83       	std	Y+2, r25	; 0x02
     a80:	89 83       	std	Y+1, r24	; 0x01
    switch(state){
     a82:	89 81       	ldd	r24, Y+1	; 0x01
     a84:	9a 81       	ldd	r25, Y+2	; 0x02
     a86:	81 30       	cpi	r24, 0x01	; 1
     a88:	91 05       	cpc	r25, r1
     a8a:	a1 f0       	breq	.+40     	; 0xab4 <SMTick3+0x40>
     a8c:	82 30       	cpi	r24, 0x02	; 2
     a8e:	91 05       	cpc	r25, r1
     a90:	1c f4       	brge	.+6      	; 0xa98 <SMTick3+0x24>
     a92:	00 97       	sbiw	r24, 0x00	; 0
     a94:	51 f0       	breq	.+20     	; 0xaaa <SMTick3+0x36>
     a96:	72 c0       	rjmp	.+228    	; 0xb7c <SMTick3+0x108>
     a98:	82 30       	cpi	r24, 0x02	; 2
     a9a:	91 05       	cpc	r25, r1
     a9c:	09 f4       	brne	.+2      	; 0xaa0 <SMTick3+0x2c>
     a9e:	40 c0       	rjmp	.+128    	; 0xb20 <SMTick3+0xac>
     aa0:	83 30       	cpi	r24, 0x03	; 3
     aa2:	91 05       	cpc	r25, r1
     aa4:	09 f4       	brne	.+2      	; 0xaa8 <SMTick3+0x34>
     aa6:	53 c0       	rjmp	.+166    	; 0xb4e <SMTick3+0xda>
     aa8:	69 c0       	rjmp	.+210    	; 0xb7c <SMTick3+0x108>
        case SM3_init:
            state = SM3_no_press;
     aaa:	81 e0       	ldi	r24, 0x01	; 1
     aac:	90 e0       	ldi	r25, 0x00	; 0
     aae:	9a 83       	std	Y+2, r25	; 0x02
     ab0:	89 83       	std	Y+1, r24	; 0x01
            break;
     ab2:	67 c0       	rjmp	.+206    	; 0xb82 <SMTick3+0x10e>
        case SM3_no_press:
            if(reset_button_g){
     ab4:	80 91 83 01 	lds	r24, 0x0183
     ab8:	88 23       	and	r24, r24
     aba:	19 f0       	breq	.+6      	; 0xac2 <SMTick3+0x4e>
                player_pos_g = 0x08;
     abc:	88 e0       	ldi	r24, 0x08	; 8
     abe:	80 93 06 01 	sts	0x0106, r24
            }
            if(paused_g){
     ac2:	80 91 94 01 	lds	r24, 0x0194
     ac6:	88 23       	and	r24, r24
     ac8:	09 f0       	breq	.+2      	; 0xacc <SMTick3+0x58>
                break;
     aca:	5b c0       	rjmp	.+182    	; 0xb82 <SMTick3+0x10e>
            }
            if(bullet_live){
     acc:	80 91 89 01 	lds	r24, 0x0189
     ad0:	88 23       	and	r24, r24
     ad2:	09 f0       	breq	.+2      	; 0xad6 <SMTick3+0x62>
                break;
     ad4:	56 c0       	rjmp	.+172    	; 0xb82 <SMTick3+0x10e>
            }
            if(left_button_g){
     ad6:	80 91 84 01 	lds	r24, 0x0184
     ada:	88 23       	and	r24, r24
     adc:	71 f0       	breq	.+28     	; 0xafa <SMTick3+0x86>
                state = SM3_left;
     ade:	82 e0       	ldi	r24, 0x02	; 2
     ae0:	90 e0       	ldi	r25, 0x00	; 0
     ae2:	9a 83       	std	Y+2, r25	; 0x02
     ae4:	89 83       	std	Y+1, r24	; 0x01
                if(player_pos_g < 128){
     ae6:	80 91 06 01 	lds	r24, 0x0106
     aea:	88 23       	and	r24, r24
     aec:	c4 f0       	brlt	.+48     	; 0xb1e <SMTick3+0xaa>
                    player_pos_g = player_pos_g << 1;
     aee:	80 91 06 01 	lds	r24, 0x0106
     af2:	88 0f       	add	r24, r24
     af4:	80 93 06 01 	sts	0x0106, r24
                state = SM3_right;
                if(player_pos_g > 1){
                    player_pos_g = player_pos_g >> 1;
                }
            }
            break;
     af8:	44 c0       	rjmp	.+136    	; 0xb82 <SMTick3+0x10e>
                state = SM3_left;
                if(player_pos_g < 128){
                    player_pos_g = player_pos_g << 1;
                }
            }
            else if(right_button_g){
     afa:	80 91 85 01 	lds	r24, 0x0185
     afe:	88 23       	and	r24, r24
     b00:	71 f0       	breq	.+28     	; 0xb1e <SMTick3+0xaa>
                state = SM3_right;
     b02:	83 e0       	ldi	r24, 0x03	; 3
     b04:	90 e0       	ldi	r25, 0x00	; 0
     b06:	9a 83       	std	Y+2, r25	; 0x02
     b08:	89 83       	std	Y+1, r24	; 0x01
                if(player_pos_g > 1){
     b0a:	80 91 06 01 	lds	r24, 0x0106
     b0e:	82 30       	cpi	r24, 0x02	; 2
     b10:	30 f0       	brcs	.+12     	; 0xb1e <SMTick3+0xaa>
                    player_pos_g = player_pos_g >> 1;
     b12:	80 91 06 01 	lds	r24, 0x0106
     b16:	86 95       	lsr	r24
     b18:	80 93 06 01 	sts	0x0106, r24
                }
            }
            break;
     b1c:	32 c0       	rjmp	.+100    	; 0xb82 <SMTick3+0x10e>
     b1e:	31 c0       	rjmp	.+98     	; 0xb82 <SMTick3+0x10e>
        case SM3_left:
            if(paused_g){
     b20:	80 91 94 01 	lds	r24, 0x0194
     b24:	88 23       	and	r24, r24
     b26:	29 f0       	breq	.+10     	; 0xb32 <SMTick3+0xbe>
                state = SM3_no_press;
     b28:	81 e0       	ldi	r24, 0x01	; 1
     b2a:	90 e0       	ldi	r25, 0x00	; 0
     b2c:	9a 83       	std	Y+2, r25	; 0x02
     b2e:	89 83       	std	Y+1, r24	; 0x01
                break;
     b30:	28 c0       	rjmp	.+80     	; 0xb82 <SMTick3+0x10e>
            }
            if(!left_button_g && !right_button_g){
     b32:	80 91 84 01 	lds	r24, 0x0184
     b36:	88 23       	and	r24, r24
     b38:	49 f4       	brne	.+18     	; 0xb4c <SMTick3+0xd8>
     b3a:	80 91 85 01 	lds	r24, 0x0185
     b3e:	88 23       	and	r24, r24
     b40:	29 f4       	brne	.+10     	; 0xb4c <SMTick3+0xd8>
                state = SM3_no_press;
     b42:	81 e0       	ldi	r24, 0x01	; 1
     b44:	90 e0       	ldi	r25, 0x00	; 0
     b46:	9a 83       	std	Y+2, r25	; 0x02
     b48:	89 83       	std	Y+1, r24	; 0x01
            }
            break;
     b4a:	1b c0       	rjmp	.+54     	; 0xb82 <SMTick3+0x10e>
     b4c:	1a c0       	rjmp	.+52     	; 0xb82 <SMTick3+0x10e>
        case SM3_right:
            if(paused_g){
     b4e:	80 91 94 01 	lds	r24, 0x0194
     b52:	88 23       	and	r24, r24
     b54:	29 f0       	breq	.+10     	; 0xb60 <SMTick3+0xec>
                state = SM3_no_press;
     b56:	81 e0       	ldi	r24, 0x01	; 1
     b58:	90 e0       	ldi	r25, 0x00	; 0
     b5a:	9a 83       	std	Y+2, r25	; 0x02
     b5c:	89 83       	std	Y+1, r24	; 0x01
                break;
     b5e:	11 c0       	rjmp	.+34     	; 0xb82 <SMTick3+0x10e>
            }
            if(!left_button_g && !right_button_g){
     b60:	80 91 84 01 	lds	r24, 0x0184
     b64:	88 23       	and	r24, r24
     b66:	49 f4       	brne	.+18     	; 0xb7a <SMTick3+0x106>
     b68:	80 91 85 01 	lds	r24, 0x0185
     b6c:	88 23       	and	r24, r24
     b6e:	29 f4       	brne	.+10     	; 0xb7a <SMTick3+0x106>
                state = SM3_no_press;
     b70:	81 e0       	ldi	r24, 0x01	; 1
     b72:	90 e0       	ldi	r25, 0x00	; 0
     b74:	9a 83       	std	Y+2, r25	; 0x02
     b76:	89 83       	std	Y+1, r24	; 0x01
            }
            break;
     b78:	04 c0       	rjmp	.+8      	; 0xb82 <SMTick3+0x10e>
     b7a:	03 c0       	rjmp	.+6      	; 0xb82 <SMTick3+0x10e>
        default:
            state = SM3_init;
     b7c:	1a 82       	std	Y+2, r1	; 0x02
     b7e:	19 82       	std	Y+1, r1	; 0x01
            break;
     b80:	00 00       	nop
    }// End state transtions.
    
    switch(state){ //Begin State actions, in this case empty.
     b82:	89 81       	ldd	r24, Y+1	; 0x01
     b84:	9a 81       	ldd	r25, Y+2	; 0x02
     b86:	81 30       	cpi	r24, 0x01	; 1
     b88:	91 05       	cpc	r25, r1
     b8a:	69 f0       	breq	.+26     	; 0xba6 <SMTick3+0x132>
     b8c:	82 30       	cpi	r24, 0x02	; 2
     b8e:	91 05       	cpc	r25, r1
     b90:	1c f4       	brge	.+6      	; 0xb98 <SMTick3+0x124>
     b92:	00 97       	sbiw	r24, 0x00	; 0
     b94:	51 f0       	breq	.+20     	; 0xbaa <SMTick3+0x136>
        case SM3_left:
            break;
        case SM3_right:
            break;
        default:
            break;
     b96:	0e c0       	rjmp	.+28     	; 0xbb4 <SMTick3+0x140>
        default:
            state = SM3_init;
            break;
    }// End state transtions.
    
    switch(state){ //Begin State actions, in this case empty.
     b98:	82 30       	cpi	r24, 0x02	; 2
     b9a:	91 05       	cpc	r25, r1
     b9c:	41 f0       	breq	.+16     	; 0xbae <SMTick3+0x13a>
     b9e:	83 30       	cpi	r24, 0x03	; 3
     ba0:	91 05       	cpc	r25, r1
     ba2:	39 f0       	breq	.+14     	; 0xbb2 <SMTick3+0x13e>
        case SM3_left:
            break;
        case SM3_right:
            break;
        default:
            break;
     ba4:	07 c0       	rjmp	.+14     	; 0xbb4 <SMTick3+0x140>
    
    switch(state){ //Begin State actions, in this case empty.
        case SM3_init:
            break;
        case SM3_no_press:
            break;
     ba6:	00 00       	nop
     ba8:	05 c0       	rjmp	.+10     	; 0xbb4 <SMTick3+0x140>
            break;
    }// End state transtions.
    
    switch(state){ //Begin State actions, in this case empty.
        case SM3_init:
            break;
     baa:	00 00       	nop
     bac:	03 c0       	rjmp	.+6      	; 0xbb4 <SMTick3+0x140>
        case SM3_no_press:
            break;
        case SM3_left:
            break;
     bae:	00 00       	nop
     bb0:	01 c0       	rjmp	.+2      	; 0xbb4 <SMTick3+0x140>
        case SM3_right:
            break;
     bb2:	00 00       	nop
        default:
            break;
    } // End state actions.
    return state;
     bb4:	89 81       	ldd	r24, Y+1	; 0x01
     bb6:	9a 81       	ldd	r25, Y+2	; 0x02
}
     bb8:	0f 90       	pop	r0
     bba:	0f 90       	pop	r0
     bbc:	df 91       	pop	r29
     bbe:	cf 91       	pop	r28
     bc0:	08 95       	ret

00000bc2 <SMTick4>:

enum SM4_States {SM4_init, SM4_get_inputs};

int SMTick4(int state){
     bc2:	cf 93       	push	r28
     bc4:	df 93       	push	r29
     bc6:	00 d0       	rcall	.+0      	; 0xbc8 <SMTick4+0x6>
     bc8:	cd b7       	in	r28, 0x3d	; 61
     bca:	de b7       	in	r29, 0x3e	; 62
     bcc:	9a 83       	std	Y+2, r25	; 0x02
     bce:	89 83       	std	Y+1, r24	; 0x01
    static unsigned char keypadVal;
    static unsigned char setEnemySpeed = 0;
    switch(state){ //Begin state transitions for SM4, grabbing inputs.
     bd0:	89 81       	ldd	r24, Y+1	; 0x01
     bd2:	9a 81       	ldd	r25, Y+2	; 0x02
     bd4:	00 97       	sbiw	r24, 0x00	; 0
     bd6:	21 f0       	breq	.+8      	; 0xbe0 <SMTick4+0x1e>
     bd8:	81 30       	cpi	r24, 0x01	; 1
     bda:	91 05       	cpc	r25, r1
     bdc:	31 f0       	breq	.+12     	; 0xbea <SMTick4+0x28>
     bde:	0a c0       	rjmp	.+20     	; 0xbf4 <SMTick4+0x32>
        case SM4_init:
            state = SM4_get_inputs;
     be0:	81 e0       	ldi	r24, 0x01	; 1
     be2:	90 e0       	ldi	r25, 0x00	; 0
     be4:	9a 83       	std	Y+2, r25	; 0x02
     be6:	89 83       	std	Y+1, r24	; 0x01
            break;
     be8:	08 c0       	rjmp	.+16     	; 0xbfa <SMTick4+0x38>
        case SM4_get_inputs:
            state = SM4_get_inputs;
     bea:	81 e0       	ldi	r24, 0x01	; 1
     bec:	90 e0       	ldi	r25, 0x00	; 0
     bee:	9a 83       	std	Y+2, r25	; 0x02
     bf0:	89 83       	std	Y+1, r24	; 0x01
            break;
     bf2:	03 c0       	rjmp	.+6      	; 0xbfa <SMTick4+0x38>
        default:
            state = SM4_init;
     bf4:	1a 82       	std	Y+2, r1	; 0x02
     bf6:	19 82       	std	Y+1, r1	; 0x01
            break;
     bf8:	00 00       	nop
    } //End state transtions.
    
    switch(state){ //Begin state actions.
     bfa:	89 81       	ldd	r24, Y+1	; 0x01
     bfc:	9a 81       	ldd	r25, Y+2	; 0x02
     bfe:	00 97       	sbiw	r24, 0x00	; 0
     c00:	09 f4       	brne	.+2      	; 0xc04 <SMTick4+0x42>
     c02:	a2 c0       	rjmp	.+324    	; 0xd48 <SMTick4+0x186>
     c04:	81 30       	cpi	r24, 0x01	; 1
     c06:	91 05       	cpc	r25, r1
     c08:	09 f0       	breq	.+2      	; 0xc0c <SMTick4+0x4a>
                enemy_speed_g = 1;
            }

            break;
        default:
            break;
     c0a:	9f c0       	rjmp	.+318    	; 0xd4a <SMTick4+0x188>
    switch(state){ //Begin state actions.
        case SM4_init:
            break;
        case SM4_get_inputs:
            //zero all buttons
            off_button_g = 0;
     c0c:	10 92 81 01 	sts	0x0181, r1
            start_button_g = 0;
     c10:	10 92 82 01 	sts	0x0182, r1
            reset_button_g = 0;
     c14:	10 92 83 01 	sts	0x0183, r1
            left_button_g = 0;
     c18:	10 92 84 01 	sts	0x0184, r1
            right_button_g = 0;
     c1c:	10 92 85 01 	sts	0x0185, r1
            shoot_button_g = 0;
     c20:	10 92 88 01 	sts	0x0188, r1
            paused_scroll_g = 0;
     c24:	10 92 95 01 	sts	0x0195, r1
            
            //Get the value from the keypad
            keypadVal = GetKeypadKey();
     c28:	88 db       	rcall	.-2288   	; 0x33a <GetKeypadKey>
     c2a:	80 93 a4 01 	sts	0x01A4, r24
            if(keypadVal == '1'){ right_button_g = 1;}
     c2e:	80 91 a4 01 	lds	r24, 0x01A4
     c32:	81 33       	cpi	r24, 0x31	; 49
     c34:	21 f4       	brne	.+8      	; 0xc3e <SMTick4+0x7c>
     c36:	81 e0       	ldi	r24, 0x01	; 1
     c38:	80 93 85 01 	sts	0x0185, r24
     c3c:	36 c0       	rjmp	.+108    	; 0xcaa <SMTick4+0xe8>
            else if(keypadVal == '2'){ shoot_button_g = 1;}
     c3e:	80 91 a4 01 	lds	r24, 0x01A4
     c42:	82 33       	cpi	r24, 0x32	; 50
     c44:	21 f4       	brne	.+8      	; 0xc4e <SMTick4+0x8c>
     c46:	81 e0       	ldi	r24, 0x01	; 1
     c48:	80 93 88 01 	sts	0x0188, r24
     c4c:	2e c0       	rjmp	.+92     	; 0xcaa <SMTick4+0xe8>
            else if(keypadVal == '3'){ left_button_g = 1;}
     c4e:	80 91 a4 01 	lds	r24, 0x01A4
     c52:	83 33       	cpi	r24, 0x33	; 51
     c54:	21 f4       	brne	.+8      	; 0xc5e <SMTick4+0x9c>
     c56:	81 e0       	ldi	r24, 0x01	; 1
     c58:	80 93 84 01 	sts	0x0184, r24
     c5c:	26 c0       	rjmp	.+76     	; 0xcaa <SMTick4+0xe8>
            else if(keypadVal == 'A'){ start_button_g = 1;}
     c5e:	80 91 a4 01 	lds	r24, 0x01A4
     c62:	81 34       	cpi	r24, 0x41	; 65
     c64:	21 f4       	brne	.+8      	; 0xc6e <SMTick4+0xac>
     c66:	81 e0       	ldi	r24, 0x01	; 1
     c68:	80 93 82 01 	sts	0x0182, r24
     c6c:	1e c0       	rjmp	.+60     	; 0xcaa <SMTick4+0xe8>

            else if(keypadVal == '4'){ paused_scroll_g = 1;}
     c6e:	80 91 a4 01 	lds	r24, 0x01A4
     c72:	84 33       	cpi	r24, 0x34	; 52
     c74:	21 f4       	brne	.+8      	; 0xc7e <SMTick4+0xbc>
     c76:	81 e0       	ldi	r24, 0x01	; 1
     c78:	80 93 95 01 	sts	0x0195, r24
     c7c:	16 c0       	rjmp	.+44     	; 0xcaa <SMTick4+0xe8>
            else if(keypadVal == '5'){ setEnemySpeed = 0;}
     c7e:	80 91 a4 01 	lds	r24, 0x01A4
     c82:	85 33       	cpi	r24, 0x35	; 53
     c84:	19 f4       	brne	.+6      	; 0xc8c <SMTick4+0xca>
     c86:	10 92 a5 01 	sts	0x01A5, r1
     c8a:	0f c0       	rjmp	.+30     	; 0xcaa <SMTick4+0xe8>
            else if(keypadVal == '6'){ setEnemySpeed = 1;}
     c8c:	80 91 a4 01 	lds	r24, 0x01A4
     c90:	86 33       	cpi	r24, 0x36	; 54
     c92:	21 f4       	brne	.+8      	; 0xc9c <SMTick4+0xda>
     c94:	81 e0       	ldi	r24, 0x01	; 1
     c96:	80 93 a5 01 	sts	0x01A5, r24
     c9a:	07 c0       	rjmp	.+14     	; 0xcaa <SMTick4+0xe8>
            else if(keypadVal == 'B'){ reset_button_g = 1;}
     c9c:	80 91 a4 01 	lds	r24, 0x01A4
     ca0:	82 34       	cpi	r24, 0x42	; 66
     ca2:	19 f4       	brne	.+6      	; 0xcaa <SMTick4+0xe8>
     ca4:	81 e0       	ldi	r24, 0x01	; 1
     ca6:	80 93 83 01 	sts	0x0183, r24
            
            to_reset_g = 0;
     caa:	10 92 96 01 	sts	0x0196, r1
            // If the game is not paused, reset is pressed and it was not already being reset
            if(reset_button_g && !to_reset_g){ 
     cae:	80 91 83 01 	lds	r24, 0x0183
     cb2:	88 23       	and	r24, r24
     cb4:	49 f0       	breq	.+18     	; 0xcc8 <SMTick4+0x106>
     cb6:	80 91 96 01 	lds	r24, 0x0196
     cba:	88 23       	and	r24, r24
     cbc:	29 f4       	brne	.+10     	; 0xcc8 <SMTick4+0x106>
                game_over_g = 0; // set game over to 0
     cbe:	10 92 97 01 	sts	0x0197, r1
                to_reset_g = 1; // enable the reset variable.
     cc2:	81 e0       	ldi	r24, 0x01	; 1
     cc4:	80 93 96 01 	sts	0x0196, r24
            }

            // If the game is not over, and start is pressed, pause
            if(start_button_g && !game_over_g){
     cc8:	80 91 82 01 	lds	r24, 0x0182
     ccc:	88 23       	and	r24, r24
     cce:	59 f0       	breq	.+22     	; 0xce6 <SMTick4+0x124>
     cd0:	80 91 97 01 	lds	r24, 0x0197
     cd4:	88 23       	and	r24, r24
     cd6:	39 f4       	brne	.+14     	; 0xce6 <SMTick4+0x124>
                if(!paused_g){
     cd8:	80 91 94 01 	lds	r24, 0x0194
     cdc:	88 23       	and	r24, r24
     cde:	19 f4       	brne	.+6      	; 0xce6 <SMTick4+0x124>
                    paused_g = 1;
     ce0:	81 e0       	ldi	r24, 0x01	; 1
     ce2:	80 93 94 01 	sts	0x0194, r24
                }
            }
            
            //If the game is paused and the player moves, unpause.
            if((paused_g) && (left_button_g || right_button_g)){
     ce6:	80 91 94 01 	lds	r24, 0x0194
     cea:	88 23       	and	r24, r24
     cec:	51 f0       	breq	.+20     	; 0xd02 <SMTick4+0x140>
     cee:	80 91 84 01 	lds	r24, 0x0184
     cf2:	88 23       	and	r24, r24
     cf4:	21 f4       	brne	.+8      	; 0xcfe <SMTick4+0x13c>
     cf6:	80 91 85 01 	lds	r24, 0x0185
     cfa:	88 23       	and	r24, r24
     cfc:	11 f0       	breq	.+4      	; 0xd02 <SMTick4+0x140>
                paused_g = 0;
     cfe:	10 92 94 01 	sts	0x0194, r1
            }
            if((paused_g == 1) && paused_scroll_g){
     d02:	80 91 94 01 	lds	r24, 0x0194
     d06:	81 30       	cpi	r24, 0x01	; 1
     d08:	39 f4       	brne	.+14     	; 0xd18 <SMTick4+0x156>
     d0a:	80 91 95 01 	lds	r24, 0x0195
     d0e:	88 23       	and	r24, r24
     d10:	19 f0       	breq	.+6      	; 0xd18 <SMTick4+0x156>
                paused_g = 2;
     d12:	82 e0       	ldi	r24, 0x02	; 2
     d14:	80 93 94 01 	sts	0x0194, r24
            }
            if((paused_g == 2) && !setEnemySpeed){
     d18:	80 91 94 01 	lds	r24, 0x0194
     d1c:	82 30       	cpi	r24, 0x02	; 2
     d1e:	39 f4       	brne	.+14     	; 0xd2e <SMTick4+0x16c>
     d20:	80 91 a5 01 	lds	r24, 0x01A5
     d24:	88 23       	and	r24, r24
     d26:	19 f4       	brne	.+6      	; 0xd2e <SMTick4+0x16c>
                enemy_speed_g = 0;
     d28:	10 92 93 01 	sts	0x0193, r1
     d2c:	0c c0       	rjmp	.+24     	; 0xd46 <SMTick4+0x184>
            }
            else if((paused_g == 2) && setEnemySpeed){
     d2e:	80 91 94 01 	lds	r24, 0x0194
     d32:	82 30       	cpi	r24, 0x02	; 2
     d34:	41 f4       	brne	.+16     	; 0xd46 <SMTick4+0x184>
     d36:	80 91 a5 01 	lds	r24, 0x01A5
     d3a:	88 23       	and	r24, r24
     d3c:	21 f0       	breq	.+8      	; 0xd46 <SMTick4+0x184>
                enemy_speed_g = 1;
     d3e:	81 e0       	ldi	r24, 0x01	; 1
     d40:	80 93 93 01 	sts	0x0193, r24
            }

            break;
     d44:	02 c0       	rjmp	.+4      	; 0xd4a <SMTick4+0x188>
     d46:	01 c0       	rjmp	.+2      	; 0xd4a <SMTick4+0x188>
            break;
    } //End state transtions.
    
    switch(state){ //Begin state actions.
        case SM4_init:
            break;
     d48:	00 00       	nop

            break;
        default:
            break;
    } // End state actions
    return state;
     d4a:	89 81       	ldd	r24, Y+1	; 0x01
     d4c:	9a 81       	ldd	r25, Y+2	; 0x02
}
     d4e:	0f 90       	pop	r0
     d50:	0f 90       	pop	r0
     d52:	df 91       	pop	r29
     d54:	cf 91       	pop	r28
     d56:	08 95       	ret

00000d58 <SMTick5>:

//Updates the bullets movement.
enum SM5_States{SM5_init, SM5_track_shot, SM5_paused};

int SMTick5(int state){
     d58:	cf 93       	push	r28
     d5a:	df 93       	push	r29
     d5c:	00 d0       	rcall	.+0      	; 0xd5e <SMTick5+0x6>
     d5e:	cd b7       	in	r28, 0x3d	; 61
     d60:	de b7       	in	r29, 0x3e	; 62
     d62:	9a 83       	std	Y+2, r25	; 0x02
     d64:	89 83       	std	Y+1, r24	; 0x01
    switch(state){
     d66:	89 81       	ldd	r24, Y+1	; 0x01
     d68:	9a 81       	ldd	r25, Y+2	; 0x02
     d6a:	81 30       	cpi	r24, 0x01	; 1
     d6c:	91 05       	cpc	r25, r1
     d6e:	51 f0       	breq	.+20     	; 0xd84 <SMTick5+0x2c>
     d70:	82 30       	cpi	r24, 0x02	; 2
     d72:	91 05       	cpc	r25, r1
     d74:	d1 f0       	breq	.+52     	; 0xdaa <SMTick5+0x52>
     d76:	00 97       	sbiw	r24, 0x00	; 0
     d78:	41 f5       	brne	.+80     	; 0xdca <SMTick5+0x72>
        case SM5_init:
            state = SM5_track_shot;
     d7a:	81 e0       	ldi	r24, 0x01	; 1
     d7c:	90 e0       	ldi	r25, 0x00	; 0
     d7e:	9a 83       	std	Y+2, r25	; 0x02
     d80:	89 83       	std	Y+1, r24	; 0x01
            break;
     d82:	26 c0       	rjmp	.+76     	; 0xdd0 <SMTick5+0x78>
        case SM5_track_shot:
            if(paused_g){
     d84:	80 91 94 01 	lds	r24, 0x0194
     d88:	88 23       	and	r24, r24
     d8a:	21 f0       	breq	.+8      	; 0xd94 <SMTick5+0x3c>
                state = SM5_paused;
     d8c:	82 e0       	ldi	r24, 0x02	; 2
     d8e:	90 e0       	ldi	r25, 0x00	; 0
     d90:	9a 83       	std	Y+2, r25	; 0x02
     d92:	89 83       	std	Y+1, r24	; 0x01
            }
            if(reset_button_g){
     d94:	80 91 83 01 	lds	r24, 0x0183
     d98:	88 23       	and	r24, r24
     d9a:	11 f0       	breq	.+4      	; 0xda0 <SMTick5+0x48>
                state = SM5_init;
     d9c:	1a 82       	std	Y+2, r1	; 0x02
     d9e:	19 82       	std	Y+1, r1	; 0x01
            }
            state = SM5_track_shot;
     da0:	81 e0       	ldi	r24, 0x01	; 1
     da2:	90 e0       	ldi	r25, 0x00	; 0
     da4:	9a 83       	std	Y+2, r25	; 0x02
     da6:	89 83       	std	Y+1, r24	; 0x01
            break;
     da8:	13 c0       	rjmp	.+38     	; 0xdd0 <SMTick5+0x78>
        case SM5_paused:
            if(!paused_g){
     daa:	80 91 94 01 	lds	r24, 0x0194
     dae:	88 23       	and	r24, r24
     db0:	21 f4       	brne	.+8      	; 0xdba <SMTick5+0x62>
                state = SM5_track_shot;
     db2:	81 e0       	ldi	r24, 0x01	; 1
     db4:	90 e0       	ldi	r25, 0x00	; 0
     db6:	9a 83       	std	Y+2, r25	; 0x02
     db8:	89 83       	std	Y+1, r24	; 0x01
            }
            if(!game_over_g){
     dba:	80 91 97 01 	lds	r24, 0x0197
     dbe:	88 23       	and	r24, r24
     dc0:	19 f4       	brne	.+6      	; 0xdc8 <SMTick5+0x70>
                state = SM5_init;
     dc2:	1a 82       	std	Y+2, r1	; 0x02
     dc4:	19 82       	std	Y+1, r1	; 0x01
            }
            break;
     dc6:	04 c0       	rjmp	.+8      	; 0xdd0 <SMTick5+0x78>
     dc8:	03 c0       	rjmp	.+6      	; 0xdd0 <SMTick5+0x78>
        default:
            state = SM5_init;
     dca:	1a 82       	std	Y+2, r1	; 0x02
     dcc:	19 82       	std	Y+1, r1	; 0x01
            break;
     dce:	00 00       	nop
    }
    switch(state){
     dd0:	89 81       	ldd	r24, Y+1	; 0x01
     dd2:	9a 81       	ldd	r25, Y+2	; 0x02
     dd4:	81 30       	cpi	r24, 0x01	; 1
     dd6:	91 05       	cpc	r25, r1
     dd8:	41 f0       	breq	.+16     	; 0xdea <SMTick5+0x92>
     dda:	82 30       	cpi	r24, 0x02	; 2
     ddc:	91 05       	cpc	r25, r1
     dde:	09 f4       	brne	.+2      	; 0xde2 <SMTick5+0x8a>
     de0:	c6 c0       	rjmp	.+396    	; 0xf6e <SMTick5+0x216>
     de2:	00 97       	sbiw	r24, 0x00	; 0
     de4:	09 f4       	brne	.+2      	; 0xde8 <SMTick5+0x90>
     de6:	c5 c0       	rjmp	.+394    	; 0xf72 <SMTick5+0x21a>
            }
            break;
        case SM5_paused:
            break;
        default:
            break;
     de8:	c5 c0       	rjmp	.+394    	; 0xf74 <SMTick5+0x21c>
    }
    switch(state){
        case SM5_init:
            break;
        case SM5_track_shot:
            if(paused_g || game_over_g){
     dea:	80 91 94 01 	lds	r24, 0x0194
     dee:	88 23       	and	r24, r24
     df0:	09 f0       	breq	.+2      	; 0xdf4 <SMTick5+0x9c>
     df2:	c0 c0       	rjmp	.+384    	; 0xf74 <SMTick5+0x21c>
     df4:	80 91 97 01 	lds	r24, 0x0197
     df8:	88 23       	and	r24, r24
     dfa:	09 f0       	breq	.+2      	; 0xdfe <SMTick5+0xa6>
     dfc:	bb c0       	rjmp	.+374    	; 0xf74 <SMTick5+0x21c>
                break;
            }
            if(!bullet_live && shoot_button_g){ //If there is no bu
     dfe:	80 91 89 01 	lds	r24, 0x0189
     e02:	88 23       	and	r24, r24
     e04:	71 f4       	brne	.+28     	; 0xe22 <SMTick5+0xca>
     e06:	80 91 88 01 	lds	r24, 0x0188
     e0a:	88 23       	and	r24, r24
     e0c:	51 f0       	breq	.+20     	; 0xe22 <SMTick5+0xca>
                bullet_live = 1;
     e0e:	81 e0       	ldi	r24, 0x01	; 1
     e10:	80 93 89 01 	sts	0x0189, r24
                bullet_x_g = player_pos_g;
     e14:	80 91 06 01 	lds	r24, 0x0106
     e18:	80 93 86 01 	sts	0x0186, r24
                bullet_y_g = 1;
     e1c:	81 e0       	ldi	r24, 0x01	; 1
     e1e:	80 93 87 01 	sts	0x0187, r24
            }
            if(bullet_x_g && bullet_y_g){ // If the bullet has a valid position.
     e22:	80 91 86 01 	lds	r24, 0x0186
     e26:	88 23       	and	r24, r24
     e28:	49 f0       	breq	.+18     	; 0xe3c <SMTick5+0xe4>
     e2a:	80 91 87 01 	lds	r24, 0x0187
     e2e:	88 23       	and	r24, r24
     e30:	29 f0       	breq	.+10     	; 0xe3c <SMTick5+0xe4>
                bullet_y_g = bullet_y_g << 1;
     e32:	80 91 87 01 	lds	r24, 0x0187
     e36:	88 0f       	add	r24, r24
     e38:	80 93 87 01 	sts	0x0187, r24
            }
            if(bullet_y_g == 0){
     e3c:	80 91 87 01 	lds	r24, 0x0187
     e40:	88 23       	and	r24, r24
     e42:	31 f4       	brne	.+12     	; 0xe50 <SMTick5+0xf8>
                bullet_x_g = 0;
     e44:	10 92 86 01 	sts	0x0186, r1
                bullet_y_g = 0;
     e48:	10 92 87 01 	sts	0x0187, r1
                bullet_live = 0;
     e4c:	10 92 89 01 	sts	0x0189, r1
            }
            //Since the bullet is faster than the enemies, collision is checked here.
            to_display_g = 0;
     e50:	10 92 0d 02 	sts	0x020D, r1
            if(bullet_y_g == enemy_row[0]){
     e54:	90 91 8d 01 	lds	r25, 0x018D
     e58:	80 91 87 01 	lds	r24, 0x0187
     e5c:	98 17       	cp	r25, r24
     e5e:	29 f5       	brne	.+74     	; 0xeaa <SMTick5+0x152>
                if((bullet_x_g & enemy_col[0]) != 0){
     e60:	90 91 8a 01 	lds	r25, 0x018A
     e64:	80 91 86 01 	lds	r24, 0x0186
     e68:	89 23       	and	r24, r25
     e6a:	88 23       	and	r24, r24
     e6c:	f1 f0       	breq	.+60     	; 0xeaa <SMTick5+0x152>
                    enemy_col[0] = enemy_col[0] ^ (char) bullet_x_g;
     e6e:	90 91 8a 01 	lds	r25, 0x018A
     e72:	80 91 86 01 	lds	r24, 0x0186
     e76:	89 27       	eor	r24, r25
     e78:	80 93 8a 01 	sts	0x018A, r24
                    bullet_live = 0;
     e7c:	10 92 89 01 	sts	0x0189, r1
                    bullet_x_g = 0;
     e80:	10 92 86 01 	sts	0x0186, r1
                    bullet_y_g = 0;
     e84:	10 92 87 01 	sts	0x0187, r1
                    to_display_g = 1;
     e88:	81 e0       	ldi	r24, 0x01	; 1
     e8a:	80 93 0d 02 	sts	0x020D, r24
                    score += 1;
     e8e:	80 91 98 01 	lds	r24, 0x0198
     e92:	8f 5f       	subi	r24, 0xFF	; 255
     e94:	80 93 98 01 	sts	0x0198, r24
                    if(enemy_speed_g){
     e98:	80 91 93 01 	lds	r24, 0x0193
     e9c:	88 23       	and	r24, r24
     e9e:	29 f0       	breq	.+10     	; 0xeaa <SMTick5+0x152>
                        score += 2;
     ea0:	80 91 98 01 	lds	r24, 0x0198
     ea4:	8e 5f       	subi	r24, 0xFE	; 254
     ea6:	80 93 98 01 	sts	0x0198, r24
                    }
                }
            }
            if(bullet_y_g == enemy_row[1]){
     eaa:	90 91 8e 01 	lds	r25, 0x018E
     eae:	80 91 87 01 	lds	r24, 0x0187
     eb2:	98 17       	cp	r25, r24
     eb4:	29 f5       	brne	.+74     	; 0xf00 <SMTick5+0x1a8>
                if((bullet_x_g & enemy_col[1]) != 0){
     eb6:	90 91 8b 01 	lds	r25, 0x018B
     eba:	80 91 86 01 	lds	r24, 0x0186
     ebe:	89 23       	and	r24, r25
     ec0:	88 23       	and	r24, r24
     ec2:	f1 f0       	breq	.+60     	; 0xf00 <SMTick5+0x1a8>
                    enemy_col[1] = enemy_col[1] ^ (char) bullet_x_g;
     ec4:	90 91 8b 01 	lds	r25, 0x018B
     ec8:	80 91 86 01 	lds	r24, 0x0186
     ecc:	89 27       	eor	r24, r25
     ece:	80 93 8b 01 	sts	0x018B, r24
                    bullet_live = 0;
     ed2:	10 92 89 01 	sts	0x0189, r1
                    bullet_x_g = 0;
     ed6:	10 92 86 01 	sts	0x0186, r1
                    bullet_y_g = 0;
     eda:	10 92 87 01 	sts	0x0187, r1
                    to_display_g = 1;
     ede:	81 e0       	ldi	r24, 0x01	; 1
     ee0:	80 93 0d 02 	sts	0x020D, r24
                    score += 5;
     ee4:	80 91 98 01 	lds	r24, 0x0198
     ee8:	8b 5f       	subi	r24, 0xFB	; 251
     eea:	80 93 98 01 	sts	0x0198, r24
                    if(enemy_speed_g){
     eee:	80 91 93 01 	lds	r24, 0x0193
     ef2:	88 23       	and	r24, r24
     ef4:	29 f0       	breq	.+10     	; 0xf00 <SMTick5+0x1a8>
                        score += 3;
     ef6:	80 91 98 01 	lds	r24, 0x0198
     efa:	8d 5f       	subi	r24, 0xFD	; 253
     efc:	80 93 98 01 	sts	0x0198, r24
                    }
                }
            }
            if(bullet_y_g == enemy_row[2]){
     f00:	90 91 8f 01 	lds	r25, 0x018F
     f04:	80 91 87 01 	lds	r24, 0x0187
     f08:	98 17       	cp	r25, r24
     f0a:	29 f5       	brne	.+74     	; 0xf56 <SMTick5+0x1fe>
                if((bullet_x_g & enemy_col[2]) != 0){
     f0c:	90 91 8c 01 	lds	r25, 0x018C
     f10:	80 91 86 01 	lds	r24, 0x0186
     f14:	89 23       	and	r24, r25
     f16:	88 23       	and	r24, r24
     f18:	f1 f0       	breq	.+60     	; 0xf56 <SMTick5+0x1fe>
                    enemy_col[2] = enemy_col[2] ^ (char) bullet_x_g;
     f1a:	90 91 8c 01 	lds	r25, 0x018C
     f1e:	80 91 86 01 	lds	r24, 0x0186
     f22:	89 27       	eor	r24, r25
     f24:	80 93 8c 01 	sts	0x018C, r24
                    bullet_live = 0;
     f28:	10 92 89 01 	sts	0x0189, r1
                    bullet_x_g = 0;
     f2c:	10 92 86 01 	sts	0x0186, r1
                    bullet_y_g = 0;
     f30:	10 92 87 01 	sts	0x0187, r1
                    to_display_g = 1;
     f34:	81 e0       	ldi	r24, 0x01	; 1
     f36:	80 93 0d 02 	sts	0x020D, r24
                    score += 10;
     f3a:	80 91 98 01 	lds	r24, 0x0198
     f3e:	86 5f       	subi	r24, 0xF6	; 246
     f40:	80 93 98 01 	sts	0x0198, r24
                    if(enemy_speed_g){
     f44:	80 91 93 01 	lds	r24, 0x0193
     f48:	88 23       	and	r24, r24
     f4a:	29 f0       	breq	.+10     	; 0xf56 <SMTick5+0x1fe>
                        score += 10;
     f4c:	80 91 98 01 	lds	r24, 0x0198
     f50:	86 5f       	subi	r24, 0xF6	; 246
     f52:	80 93 98 01 	sts	0x0198, r24
                    }
                }
            }
            if(reset_button_g){
     f56:	80 91 83 01 	lds	r24, 0x0183
     f5a:	88 23       	and	r24, r24
     f5c:	39 f0       	breq	.+14     	; 0xf6c <SMTick5+0x214>
                bullet_live = 0;
     f5e:	10 92 89 01 	sts	0x0189, r1
                bullet_x_g = 0;
     f62:	10 92 86 01 	sts	0x0186, r1
                bullet_y_g = 0;
     f66:	10 92 87 01 	sts	0x0187, r1
            }
            break;
     f6a:	04 c0       	rjmp	.+8      	; 0xf74 <SMTick5+0x21c>
     f6c:	03 c0       	rjmp	.+6      	; 0xf74 <SMTick5+0x21c>
        case SM5_paused:
            break;
     f6e:	00 00       	nop
     f70:	01 c0       	rjmp	.+2      	; 0xf74 <SMTick5+0x21c>
            state = SM5_init;
            break;
    }
    switch(state){
        case SM5_init:
            break;
     f72:	00 00       	nop
        case SM5_paused:
            break;
        default:
            break;
    }
    return state;
     f74:	89 81       	ldd	r24, Y+1	; 0x01
     f76:	9a 81       	ldd	r25, Y+2	; 0x02
};
     f78:	0f 90       	pop	r0
     f7a:	0f 90       	pop	r0
     f7c:	df 91       	pop	r29
     f7e:	cf 91       	pop	r28
     f80:	08 95       	ret

00000f82 <SMTick6>:

enum SM6_States {SM6_init, SM6_spawn, SM6_move, SM6_pause, SM6_game_over};

int SMTick6(int state){
     f82:	cf 93       	push	r28
     f84:	df 93       	push	r29
     f86:	00 d0       	rcall	.+0      	; 0xf88 <SMTick6+0x6>
     f88:	cd b7       	in	r28, 0x3d	; 61
     f8a:	de b7       	in	r29, 0x3e	; 62
     f8c:	9a 83       	std	Y+2, r25	; 0x02
     f8e:	89 83       	std	Y+1, r24	; 0x01
    static unsigned char i = 0;
    switch(state){
     f90:	89 81       	ldd	r24, Y+1	; 0x01
     f92:	9a 81       	ldd	r25, Y+2	; 0x02
     f94:	82 30       	cpi	r24, 0x02	; 2
     f96:	91 05       	cpc	r25, r1
     f98:	b9 f1       	breq	.+110    	; 0x1008 <SMTick6+0x86>
     f9a:	83 30       	cpi	r24, 0x03	; 3
     f9c:	91 05       	cpc	r25, r1
     f9e:	34 f4       	brge	.+12     	; 0xfac <SMTick6+0x2a>
     fa0:	00 97       	sbiw	r24, 0x00	; 0
     fa2:	69 f0       	breq	.+26     	; 0xfbe <SMTick6+0x3c>
     fa4:	81 30       	cpi	r24, 0x01	; 1
     fa6:	91 05       	cpc	r25, r1
     fa8:	79 f0       	breq	.+30     	; 0xfc8 <SMTick6+0x46>
     faa:	6c c0       	rjmp	.+216    	; 0x1084 <SMTick6+0x102>
     fac:	83 30       	cpi	r24, 0x03	; 3
     fae:	91 05       	cpc	r25, r1
     fb0:	09 f4       	brne	.+2      	; 0xfb4 <SMTick6+0x32>
     fb2:	48 c0       	rjmp	.+144    	; 0x1044 <SMTick6+0xc2>
     fb4:	84 30       	cpi	r24, 0x04	; 4
     fb6:	91 05       	cpc	r25, r1
     fb8:	09 f4       	brne	.+2      	; 0xfbc <SMTick6+0x3a>
     fba:	5a c0       	rjmp	.+180    	; 0x1070 <SMTick6+0xee>
     fbc:	63 c0       	rjmp	.+198    	; 0x1084 <SMTick6+0x102>
        case SM6_init:
            state = SM6_spawn;
     fbe:	81 e0       	ldi	r24, 0x01	; 1
     fc0:	90 e0       	ldi	r25, 0x00	; 0
     fc2:	9a 83       	std	Y+2, r25	; 0x02
     fc4:	89 83       	std	Y+1, r24	; 0x01
            break;
     fc6:	61 c0       	rjmp	.+194    	; 0x108a <SMTick6+0x108>
        case SM6_spawn:
            enemy_row[0] = 32; enemy_row[1] = 64; enemy_row[2] = 128;
     fc8:	80 e2       	ldi	r24, 0x20	; 32
     fca:	80 93 8d 01 	sts	0x018D, r24
     fce:	80 e4       	ldi	r24, 0x40	; 64
     fd0:	80 93 8e 01 	sts	0x018E, r24
     fd4:	80 e8       	ldi	r24, 0x80	; 128
     fd6:	80 93 8f 01 	sts	0x018F, r24
            enemy_col[0] = 252; enemy_col[1] = 252; enemy_col[2] = 252;
     fda:	8c ef       	ldi	r24, 0xFC	; 252
     fdc:	80 93 8a 01 	sts	0x018A, r24
     fe0:	8c ef       	ldi	r24, 0xFC	; 252
     fe2:	80 93 8b 01 	sts	0x018B, r24
     fe6:	8c ef       	ldi	r24, 0xFC	; 252
     fe8:	80 93 8c 01 	sts	0x018C, r24
            state = SM6_move;
     fec:	82 e0       	ldi	r24, 0x02	; 2
     fee:	90 e0       	ldi	r25, 0x00	; 0
     ff0:	9a 83       	std	Y+2, r25	; 0x02
     ff2:	89 83       	std	Y+1, r24	; 0x01
            if(paused_g){
     ff4:	80 91 94 01 	lds	r24, 0x0194
     ff8:	88 23       	and	r24, r24
     ffa:	29 f0       	breq	.+10     	; 0x1006 <SMTick6+0x84>
                state = SM6_pause;
     ffc:	83 e0       	ldi	r24, 0x03	; 3
     ffe:	90 e0       	ldi	r25, 0x00	; 0
    1000:	9a 83       	std	Y+2, r25	; 0x02
    1002:	89 83       	std	Y+1, r24	; 0x01
            }
            break;
    1004:	42 c0       	rjmp	.+132    	; 0x108a <SMTick6+0x108>
    1006:	41 c0       	rjmp	.+130    	; 0x108a <SMTick6+0x108>
        case SM6_move:
            state = SM6_move;
    1008:	82 e0       	ldi	r24, 0x02	; 2
    100a:	90 e0       	ldi	r25, 0x00	; 0
    100c:	9a 83       	std	Y+2, r25	; 0x02
    100e:	89 83       	std	Y+1, r24	; 0x01
            if(reset_button_g){
    1010:	80 91 83 01 	lds	r24, 0x0183
    1014:	88 23       	and	r24, r24
    1016:	21 f0       	breq	.+8      	; 0x1020 <SMTick6+0x9e>
                state = SM6_spawn;
    1018:	81 e0       	ldi	r24, 0x01	; 1
    101a:	90 e0       	ldi	r25, 0x00	; 0
    101c:	9a 83       	std	Y+2, r25	; 0x02
    101e:	89 83       	std	Y+1, r24	; 0x01
            }
            if(paused_g){
    1020:	80 91 94 01 	lds	r24, 0x0194
    1024:	88 23       	and	r24, r24
    1026:	21 f0       	breq	.+8      	; 0x1030 <SMTick6+0xae>
                state = SM6_pause;
    1028:	83 e0       	ldi	r24, 0x03	; 3
    102a:	90 e0       	ldi	r25, 0x00	; 0
    102c:	9a 83       	std	Y+2, r25	; 0x02
    102e:	89 83       	std	Y+1, r24	; 0x01
            }
            if(game_over_g){
    1030:	80 91 97 01 	lds	r24, 0x0197
    1034:	88 23       	and	r24, r24
    1036:	29 f0       	breq	.+10     	; 0x1042 <SMTick6+0xc0>
                state = SM6_game_over;
    1038:	84 e0       	ldi	r24, 0x04	; 4
    103a:	90 e0       	ldi	r25, 0x00	; 0
    103c:	9a 83       	std	Y+2, r25	; 0x02
    103e:	89 83       	std	Y+1, r24	; 0x01
            }
            break;
    1040:	24 c0       	rjmp	.+72     	; 0x108a <SMTick6+0x108>
    1042:	23 c0       	rjmp	.+70     	; 0x108a <SMTick6+0x108>
        case SM6_pause:
            state = SM6_move;
    1044:	82 e0       	ldi	r24, 0x02	; 2
    1046:	90 e0       	ldi	r25, 0x00	; 0
    1048:	9a 83       	std	Y+2, r25	; 0x02
    104a:	89 83       	std	Y+1, r24	; 0x01
            if(paused_g){
    104c:	80 91 94 01 	lds	r24, 0x0194
    1050:	88 23       	and	r24, r24
    1052:	21 f0       	breq	.+8      	; 0x105c <SMTick6+0xda>
                state = SM6_pause;
    1054:	83 e0       	ldi	r24, 0x03	; 3
    1056:	90 e0       	ldi	r25, 0x00	; 0
    1058:	9a 83       	std	Y+2, r25	; 0x02
    105a:	89 83       	std	Y+1, r24	; 0x01
            }
            if(to_reset_g){
    105c:	80 91 96 01 	lds	r24, 0x0196
    1060:	88 23       	and	r24, r24
    1062:	29 f0       	breq	.+10     	; 0x106e <SMTick6+0xec>
                state = SM6_spawn;
    1064:	81 e0       	ldi	r24, 0x01	; 1
    1066:	90 e0       	ldi	r25, 0x00	; 0
    1068:	9a 83       	std	Y+2, r25	; 0x02
    106a:	89 83       	std	Y+1, r24	; 0x01
            }
            break;
    106c:	0e c0       	rjmp	.+28     	; 0x108a <SMTick6+0x108>
    106e:	0d c0       	rjmp	.+26     	; 0x108a <SMTick6+0x108>
        case SM6_game_over:
            if(to_reset_g){
    1070:	80 91 96 01 	lds	r24, 0x0196
    1074:	88 23       	and	r24, r24
    1076:	29 f0       	breq	.+10     	; 0x1082 <SMTick6+0x100>
                state = SM6_spawn;
    1078:	81 e0       	ldi	r24, 0x01	; 1
    107a:	90 e0       	ldi	r25, 0x00	; 0
    107c:	9a 83       	std	Y+2, r25	; 0x02
    107e:	89 83       	std	Y+1, r24	; 0x01
            }
            break;
    1080:	04 c0       	rjmp	.+8      	; 0x108a <SMTick6+0x108>
    1082:	03 c0       	rjmp	.+6      	; 0x108a <SMTick6+0x108>
        default:
            state = SM6_init;
    1084:	1a 82       	std	Y+2, r1	; 0x02
    1086:	19 82       	std	Y+1, r1	; 0x01
            break;
    1088:	00 00       	nop
    }

    switch (state){
    108a:	89 81       	ldd	r24, Y+1	; 0x01
    108c:	9a 81       	ldd	r25, Y+2	; 0x02
    108e:	82 30       	cpi	r24, 0x02	; 2
    1090:	91 05       	cpc	r25, r1
    1092:	d9 f0       	breq	.+54     	; 0x10ca <SMTick6+0x148>
    1094:	83 30       	cpi	r24, 0x03	; 3
    1096:	91 05       	cpc	r25, r1
    1098:	3c f4       	brge	.+14     	; 0x10a8 <SMTick6+0x126>
    109a:	00 97       	sbiw	r24, 0x00	; 0
    109c:	09 f4       	brne	.+2      	; 0x10a0 <SMTick6+0x11e>
    109e:	b7 c0       	rjmp	.+366    	; 0x120e <SMTick6+0x28c>
    10a0:	81 30       	cpi	r24, 0x01	; 1
    10a2:	91 05       	cpc	r25, r1
    10a4:	51 f0       	breq	.+20     	; 0x10ba <SMTick6+0x138>
        case SM6_pause:
            break;
        case SM6_game_over:
            break;
        default:
            break;
    10a6:	b8 c0       	rjmp	.+368    	; 0x1218 <SMTick6+0x296>
        default:
            state = SM6_init;
            break;
    }

    switch (state){
    10a8:	83 30       	cpi	r24, 0x03	; 3
    10aa:	91 05       	cpc	r25, r1
    10ac:	09 f4       	brne	.+2      	; 0x10b0 <SMTick6+0x12e>
    10ae:	b1 c0       	rjmp	.+354    	; 0x1212 <SMTick6+0x290>
    10b0:	84 30       	cpi	r24, 0x04	; 4
    10b2:	91 05       	cpc	r25, r1
    10b4:	09 f4       	brne	.+2      	; 0x10b8 <SMTick6+0x136>
    10b6:	af c0       	rjmp	.+350    	; 0x1216 <SMTick6+0x294>
        case SM6_pause:
            break;
        case SM6_game_over:
            break;
        default:
            break;
    10b8:	af c0       	rjmp	.+350    	; 0x1218 <SMTick6+0x296>

    switch (state){
        case SM6_init:
            break;
        case SM6_spawn:
            score = 0;
    10ba:	10 92 98 01 	sts	0x0198, r1
            move_left = 0; // Begin shifting left.
    10be:	10 92 90 01 	sts	0x0190, r1
            move_right = 1;
    10c2:	81 e0       	ldi	r24, 0x01	; 1
    10c4:	80 93 91 01 	sts	0x0191, r24
            break;
    10c8:	a7 c0       	rjmp	.+334    	; 0x1218 <SMTick6+0x296>
        case SM6_move:
            if(enemy_speed_g && !i){
    10ca:	80 91 93 01 	lds	r24, 0x0193
    10ce:	88 23       	and	r24, r24
    10d0:	51 f0       	breq	.+20     	; 0x10e6 <SMTick6+0x164>
    10d2:	80 91 a6 01 	lds	r24, 0x01A6
    10d6:	88 23       	and	r24, r24
    10d8:	31 f4       	brne	.+12     	; 0x10e6 <SMTick6+0x164>
                ++i;
    10da:	80 91 a6 01 	lds	r24, 0x01A6
    10de:	8f 5f       	subi	r24, 0xFF	; 255
    10e0:	80 93 a6 01 	sts	0x01A6, r24
                break;
    10e4:	99 c0       	rjmp	.+306    	; 0x1218 <SMTick6+0x296>
            }
            i = 0;
    10e6:	10 92 a6 01 	sts	0x01A6, r1
            enemy_or_cols_g = enemy_col[0] | enemy_col[1] | enemy_col[2];
    10ea:	90 91 8a 01 	lds	r25, 0x018A
    10ee:	80 91 8b 01 	lds	r24, 0x018B
    10f2:	98 2b       	or	r25, r24
    10f4:	80 91 8c 01 	lds	r24, 0x018C
    10f8:	89 2b       	or	r24, r25
    10fa:	80 93 92 01 	sts	0x0192, r24
            if(!enemy_or_cols_g){ //If there are no more enemies on the field.
    10fe:	80 91 92 01 	lds	r24, 0x0192
    1102:	88 23       	and	r24, r24
    1104:	21 f4       	brne	.+8      	; 0x110e <SMTick6+0x18c>
                game_over_g = 1;
    1106:	81 e0       	ldi	r24, 0x01	; 1
    1108:	80 93 97 01 	sts	0x0197, r24
                break;
    110c:	85 c0       	rjmp	.+266    	; 0x1218 <SMTick6+0x296>
            }
            //alien movement;
            if(move_right){
    110e:	80 91 91 01 	lds	r24, 0x0191
    1112:	88 23       	and	r24, r24
    1114:	69 f1       	breq	.+90     	; 0x1170 <SMTick6+0x1ee>
                if(!(enemy_or_cols_g & 0x01)){ // If there are no aliens on the rightmost column...
    1116:	80 91 92 01 	lds	r24, 0x0192
    111a:	88 2f       	mov	r24, r24
    111c:	90 e0       	ldi	r25, 0x00	; 0
    111e:	81 70       	andi	r24, 0x01	; 1
    1120:	99 27       	eor	r25, r25
    1122:	00 97       	sbiw	r24, 0x00	; 0
    1124:	81 f4       	brne	.+32     	; 0x1146 <SMTick6+0x1c4>
                    enemy_col[0] = enemy_col[0] >> 1;
    1126:	80 91 8a 01 	lds	r24, 0x018A
    112a:	86 95       	lsr	r24
    112c:	80 93 8a 01 	sts	0x018A, r24
                    enemy_col[1] = enemy_col[1] >> 1;
    1130:	80 91 8b 01 	lds	r24, 0x018B
    1134:	86 95       	lsr	r24
    1136:	80 93 8b 01 	sts	0x018B, r24
                    enemy_col[2] = enemy_col[2] >> 1;
    113a:	80 91 8c 01 	lds	r24, 0x018C
    113e:	86 95       	lsr	r24
    1140:	80 93 8c 01 	sts	0x018C, r24
    1144:	41 c0       	rjmp	.+130    	; 0x11c8 <SMTick6+0x246>
                }
                else{ // If there are aliens on the rightmost column
                    move_right = 0;
    1146:	10 92 91 01 	sts	0x0191, r1
                    move_left = 1; // begin moving left
    114a:	81 e0       	ldi	r24, 0x01	; 1
    114c:	80 93 90 01 	sts	0x0190, r24
                    enemy_row[0] = enemy_row[0] >> 1;
    1150:	80 91 8d 01 	lds	r24, 0x018D
    1154:	86 95       	lsr	r24
    1156:	80 93 8d 01 	sts	0x018D, r24
                    enemy_row[1] = enemy_row[1] >> 1;
    115a:	80 91 8e 01 	lds	r24, 0x018E
    115e:	86 95       	lsr	r24
    1160:	80 93 8e 01 	sts	0x018E, r24
                    enemy_row[2] = enemy_row[2] >> 1; // and move the aliens up a row.
    1164:	80 91 8f 01 	lds	r24, 0x018F
    1168:	86 95       	lsr	r24
    116a:	80 93 8f 01 	sts	0x018F, r24
    116e:	2c c0       	rjmp	.+88     	; 0x11c8 <SMTick6+0x246>
                }
            }
            else if(move_left){
    1170:	80 91 90 01 	lds	r24, 0x0190
    1174:	88 23       	and	r24, r24
    1176:	41 f1       	breq	.+80     	; 0x11c8 <SMTick6+0x246>
                if(!(enemy_or_cols_g & 0x80)){ // If there are no enemies on the leftmost column
    1178:	80 91 92 01 	lds	r24, 0x0192
    117c:	88 23       	and	r24, r24
    117e:	84 f0       	brlt	.+32     	; 0x11a0 <SMTick6+0x21e>
                    enemy_col[0] = enemy_col[0] << 1;
    1180:	80 91 8a 01 	lds	r24, 0x018A
    1184:	88 0f       	add	r24, r24
    1186:	80 93 8a 01 	sts	0x018A, r24
                    enemy_col[1] = enemy_col[1] << 1;
    118a:	80 91 8b 01 	lds	r24, 0x018B
    118e:	88 0f       	add	r24, r24
    1190:	80 93 8b 01 	sts	0x018B, r24
                    enemy_col[2] = enemy_col[2] << 1;
    1194:	80 91 8c 01 	lds	r24, 0x018C
    1198:	88 0f       	add	r24, r24
    119a:	80 93 8c 01 	sts	0x018C, r24
    119e:	14 c0       	rjmp	.+40     	; 0x11c8 <SMTick6+0x246>
                }
                else{ // Otherwise move forward.
                    move_right = 1;
    11a0:	81 e0       	ldi	r24, 0x01	; 1
    11a2:	80 93 91 01 	sts	0x0191, r24
                    move_left = 0; // begin moving left
    11a6:	10 92 90 01 	sts	0x0190, r1
                    enemy_row[0] = enemy_row[0] >> 1;
    11aa:	80 91 8d 01 	lds	r24, 0x018D
    11ae:	86 95       	lsr	r24
    11b0:	80 93 8d 01 	sts	0x018D, r24
                    enemy_row[1] = enemy_row[1] >> 1;
    11b4:	80 91 8e 01 	lds	r24, 0x018E
    11b8:	86 95       	lsr	r24
    11ba:	80 93 8e 01 	sts	0x018E, r24
                    enemy_row[2] = enemy_row[2] >> 1; // and move the aliens up a row.
    11be:	80 91 8f 01 	lds	r24, 0x018F
    11c2:	86 95       	lsr	r24
    11c4:	80 93 8f 01 	sts	0x018F, r24
                }
            }
            if(enemy_row[0] == 1){
    11c8:	80 91 8d 01 	lds	r24, 0x018D
    11cc:	81 30       	cpi	r24, 0x01	; 1
    11ce:	39 f4       	brne	.+14     	; 0x11de <SMTick6+0x25c>
                if(enemy_col[0] != 0){
    11d0:	80 91 8a 01 	lds	r24, 0x018A
    11d4:	88 23       	and	r24, r24
    11d6:	19 f0       	breq	.+6      	; 0x11de <SMTick6+0x25c>
                    game_over_g= 1;
    11d8:	81 e0       	ldi	r24, 0x01	; 1
    11da:	80 93 97 01 	sts	0x0197, r24
                }
            }
            if(enemy_row[1] == 1){
    11de:	80 91 8e 01 	lds	r24, 0x018E
    11e2:	81 30       	cpi	r24, 0x01	; 1
    11e4:	39 f4       	brne	.+14     	; 0x11f4 <SMTick6+0x272>
                if(enemy_col[1] != 0){
    11e6:	80 91 8b 01 	lds	r24, 0x018B
    11ea:	88 23       	and	r24, r24
    11ec:	19 f0       	breq	.+6      	; 0x11f4 <SMTick6+0x272>
                    game_over_g= 1;
    11ee:	81 e0       	ldi	r24, 0x01	; 1
    11f0:	80 93 97 01 	sts	0x0197, r24
                }
            }
            if(enemy_row[2] == 1){
    11f4:	80 91 8f 01 	lds	r24, 0x018F
    11f8:	81 30       	cpi	r24, 0x01	; 1
    11fa:	41 f4       	brne	.+16     	; 0x120c <SMTick6+0x28a>
                if(enemy_col[2] != 0){
    11fc:	80 91 8c 01 	lds	r24, 0x018C
    1200:	88 23       	and	r24, r24
    1202:	21 f0       	breq	.+8      	; 0x120c <SMTick6+0x28a>
                    game_over_g= 1;
    1204:	81 e0       	ldi	r24, 0x01	; 1
    1206:	80 93 97 01 	sts	0x0197, r24
                }
            }
            break;
    120a:	06 c0       	rjmp	.+12     	; 0x1218 <SMTick6+0x296>
    120c:	05 c0       	rjmp	.+10     	; 0x1218 <SMTick6+0x296>
            break;
    }

    switch (state){
        case SM6_init:
            break;
    120e:	00 00       	nop
    1210:	03 c0       	rjmp	.+6      	; 0x1218 <SMTick6+0x296>
                    game_over_g= 1;
                }
            }
            break;
        case SM6_pause:
            break;
    1212:	00 00       	nop
    1214:	01 c0       	rjmp	.+2      	; 0x1218 <SMTick6+0x296>
        case SM6_game_over:
            break;
    1216:	00 00       	nop
        default:
            break;
    }
    return state;
    1218:	89 81       	ldd	r24, Y+1	; 0x01
    121a:	9a 81       	ldd	r25, Y+2	; 0x02
}
    121c:	0f 90       	pop	r0
    121e:	0f 90       	pop	r0
    1220:	df 91       	pop	r29
    1222:	cf 91       	pop	r28
    1224:	08 95       	ret

00001226 <SMTick7>:

enum SM7_States{SM7_init, SM7_wait, SM7_update, SM7_display_off, SM7_game_over, SM7_paused1,SM7_paused2 };

int SMTick7(int state){
    1226:	cf 93       	push	r28
    1228:	df 93       	push	r29
    122a:	00 d0       	rcall	.+0      	; 0x122c <SMTick7+0x6>
    122c:	00 d0       	rcall	.+0      	; 0x122e <SMTick7+0x8>
    122e:	00 d0       	rcall	.+0      	; 0x1230 <SMTick7+0xa>
    1230:	cd b7       	in	r28, 0x3d	; 61
    1232:	de b7       	in	r29, 0x3e	; 62
    1234:	9e 83       	std	Y+6, r25	; 0x06
    1236:	8d 83       	std	Y+5, r24	; 0x05
    static unsigned char posBegin = 0;
    static unsigned char posEnd = 16;
    switch(state){
    1238:	8d 81       	ldd	r24, Y+5	; 0x05
    123a:	9e 81       	ldd	r25, Y+6	; 0x06
    123c:	aa 27       	eor	r26, r26
    123e:	97 fd       	sbrc	r25, 7
    1240:	a0 95       	com	r26
    1242:	ba 2f       	mov	r27, r26
    1244:	40 e0       	ldi	r20, 0x00	; 0
    1246:	50 e0       	ldi	r21, 0x00	; 0
    1248:	26 e0       	ldi	r18, 0x06	; 6
    124a:	30 e0       	ldi	r19, 0x00	; 0
    124c:	84 1b       	sub	r24, r20
    124e:	95 0b       	sbc	r25, r21
    1250:	28 17       	cp	r18, r24
    1252:	39 07       	cpc	r19, r25
    1254:	08 f4       	brcc	.+2      	; 0x1258 <SMTick7+0x32>
    1256:	96 c0       	rjmp	.+300    	; 0x1384 <SMTick7+0x15e>
    1258:	8a 5b       	subi	r24, 0xBA	; 186
    125a:	9f 4f       	sbci	r25, 0xFF	; 255
    125c:	fc 01       	movw	r30, r24
    125e:	82 c4       	rjmp	.+2308   	; 0x1b64 <__tablejump2__>
        case SM7_init:
            state = SM7_wait;
    1260:	81 e0       	ldi	r24, 0x01	; 1
    1262:	90 e0       	ldi	r25, 0x00	; 0
    1264:	9e 83       	std	Y+6, r25	; 0x06
    1266:	8d 83       	std	Y+5, r24	; 0x05
            break;
    1268:	90 c0       	rjmp	.+288    	; 0x138a <SMTick7+0x164>
        case SM7_wait:
            if(to_reset_g){
    126a:	80 91 96 01 	lds	r24, 0x0196
    126e:	88 23       	and	r24, r24
    1270:	21 f0       	breq	.+8      	; 0x127a <SMTick7+0x54>
                state = SM7_init;
    1272:	1e 82       	std	Y+6, r1	; 0x06
    1274:	1d 82       	std	Y+5, r1	; 0x05
                LCD_ClearScreen();
    1276:	0e 94 74 00 	call	0xe8	; 0xe8 <LCD_ClearScreen>
            }
            if(to_display_g){
    127a:	80 91 0d 02 	lds	r24, 0x020D
    127e:	88 23       	and	r24, r24
    1280:	21 f0       	breq	.+8      	; 0x128a <SMTick7+0x64>
                state = SM7_update;    
    1282:	82 e0       	ldi	r24, 0x02	; 2
    1284:	90 e0       	ldi	r25, 0x00	; 0
    1286:	9e 83       	std	Y+6, r25	; 0x06
    1288:	8d 83       	std	Y+5, r24	; 0x05
            }
            if(paused_g == 1){
    128a:	80 91 94 01 	lds	r24, 0x0194
    128e:	81 30       	cpi	r24, 0x01	; 1
    1290:	c1 f4       	brne	.+48     	; 0x12c2 <SMTick7+0x9c>
                char_to_string((char)high_score, hi_score_string);
    1292:	80 91 fc 01 	lds	r24, 0x01FC
    1296:	6e e9       	ldi	r22, 0x9E	; 158
    1298:	71 e0       	ldi	r23, 0x01	; 1
    129a:	1a da       	rcall	.-3020   	; 0x6d0 <char_to_string>
                LCD_DisplayString(1, current_high);
    129c:	67 e2       	ldi	r22, 0x27	; 39
    129e:	71 e0       	ldi	r23, 0x01	; 1
    12a0:	81 e0       	ldi	r24, 0x01	; 1
    12a2:	0e 94 ee 00 	call	0x1dc	; 0x1dc <LCD_DisplayString>
                LCD_DisplayString_NoClear(14, hi_score_string);
    12a6:	6e e9       	ldi	r22, 0x9E	; 158
    12a8:	71 e0       	ldi	r23, 0x01	; 1
    12aa:	8e e0       	ldi	r24, 0x0E	; 14
    12ac:	0e 94 17 01 	call	0x22e	; 0x22e <LCD_DisplayString_NoClear>
                LCD_DisplayString_NoClear(17, more_string);
    12b0:	65 e3       	ldi	r22, 0x35	; 53
    12b2:	71 e0       	ldi	r23, 0x01	; 1
    12b4:	81 e1       	ldi	r24, 0x11	; 17
    12b6:	0e 94 17 01 	call	0x22e	; 0x22e <LCD_DisplayString_NoClear>
                state = SM7_paused1;
    12ba:	85 e0       	ldi	r24, 0x05	; 5
    12bc:	90 e0       	ldi	r25, 0x00	; 0
    12be:	9e 83       	std	Y+6, r25	; 0x06
    12c0:	8d 83       	std	Y+5, r24	; 0x05
            }            
            
            if(game_over_g){
    12c2:	80 91 97 01 	lds	r24, 0x0197
    12c6:	88 23       	and	r24, r24
    12c8:	f1 f0       	breq	.+60     	; 0x1306 <SMTick7+0xe0>
                 if(!display_low_or_high){
    12ca:	80 91 a2 01 	lds	r24, 0x01A2
    12ce:	88 23       	and	r24, r24
    12d0:	31 f4       	brne	.+12     	; 0x12de <SMTick7+0xb8>
                    LCD_DisplayString(1, game_over_low);
    12d2:	6f e0       	ldi	r22, 0x0F	; 15
    12d4:	71 e0       	ldi	r23, 0x01	; 1
    12d6:	81 e0       	ldi	r24, 0x01	; 1
    12d8:	0e 94 ee 00 	call	0x1dc	; 0x1dc <LCD_DisplayString>
    12dc:	0f c0       	rjmp	.+30     	; 0x12fc <SMTick7+0xd6>
                }
                else{
                    LCD_DisplayString(1, game_over_high);
    12de:	69 e1       	ldi	r22, 0x19	; 25
    12e0:	71 e0       	ldi	r23, 0x01	; 1
    12e2:	81 e0       	ldi	r24, 0x01	; 1
    12e4:	0e 94 ee 00 	call	0x1dc	; 0x1dc <LCD_DisplayString>
                    char_to_string(score, string_score);
    12e8:	80 91 98 01 	lds	r24, 0x0198
    12ec:	69 e9       	ldi	r22, 0x99	; 153
    12ee:	71 e0       	ldi	r23, 0x01	; 1
    12f0:	ef d9       	rcall	.-3106   	; 0x6d0 <char_to_string>
                    LCD_DisplayString_NoClear(17, string_score);
    12f2:	69 e9       	ldi	r22, 0x99	; 153
    12f4:	71 e0       	ldi	r23, 0x01	; 1
    12f6:	81 e1       	ldi	r24, 0x11	; 17
    12f8:	0e 94 17 01 	call	0x22e	; 0x22e <LCD_DisplayString_NoClear>
                }
                state = SM7_game_over;
    12fc:	84 e0       	ldi	r24, 0x04	; 4
    12fe:	90 e0       	ldi	r25, 0x00	; 0
    1300:	9e 83       	std	Y+6, r25	; 0x06
    1302:	8d 83       	std	Y+5, r24	; 0x05
            }
            break;
    1304:	42 c0       	rjmp	.+132    	; 0x138a <SMTick7+0x164>
    1306:	41 c0       	rjmp	.+130    	; 0x138a <SMTick7+0x164>
        case SM7_update:
            state = SM7_wait;
    1308:	81 e0       	ldi	r24, 0x01	; 1
    130a:	90 e0       	ldi	r25, 0x00	; 0
    130c:	9e 83       	std	Y+6, r25	; 0x06
    130e:	8d 83       	std	Y+5, r24	; 0x05
            break;
    1310:	3c c0       	rjmp	.+120    	; 0x138a <SMTick7+0x164>
        case SM7_display_off:
            state = SM7_display_off;
    1312:	83 e0       	ldi	r24, 0x03	; 3
    1314:	90 e0       	ldi	r25, 0x00	; 0
    1316:	9e 83       	std	Y+6, r25	; 0x06
    1318:	8d 83       	std	Y+5, r24	; 0x05
            break;
    131a:	37 c0       	rjmp	.+110    	; 0x138a <SMTick7+0x164>
        case SM7_game_over:
            if(to_reset_g){
    131c:	80 91 96 01 	lds	r24, 0x0196
    1320:	88 23       	and	r24, r24
    1322:	29 f0       	breq	.+10     	; 0x132e <SMTick7+0x108>
                state = SM7_init;
    1324:	1e 82       	std	Y+6, r1	; 0x06
    1326:	1d 82       	std	Y+5, r1	; 0x05
                LCD_ClearScreen();
    1328:	0e 94 74 00 	call	0xe8	; 0xe8 <LCD_ClearScreen>
            }
            break;
    132c:	2e c0       	rjmp	.+92     	; 0x138a <SMTick7+0x164>
    132e:	2d c0       	rjmp	.+90     	; 0x138a <SMTick7+0x164>
        case SM7_paused1:
            if(!paused_g){
    1330:	80 91 94 01 	lds	r24, 0x0194
    1334:	88 23       	and	r24, r24
    1336:	11 f4       	brne	.+4      	; 0x133c <SMTick7+0x116>
                state = SM7_init;
    1338:	1e 82       	std	Y+6, r1	; 0x06
    133a:	1d 82       	std	Y+5, r1	; 0x05
            }
            if(paused_g > 1){
    133c:	80 91 94 01 	lds	r24, 0x0194
    1340:	82 30       	cpi	r24, 0x02	; 2
    1342:	78 f0       	brcs	.+30     	; 0x1362 <SMTick7+0x13c>
                state = SM7_paused2;
    1344:	86 e0       	ldi	r24, 0x06	; 6
    1346:	90 e0       	ldi	r25, 0x00	; 0
    1348:	9e 83       	std	Y+6, r25	; 0x06
    134a:	8d 83       	std	Y+5, r24	; 0x05
                LCD_DisplayString(1, second_pause);
    134c:	62 e4       	ldi	r22, 0x42	; 66
    134e:	71 e0       	ldi	r23, 0x01	; 1
    1350:	81 e0       	ldi	r24, 0x01	; 1
    1352:	0e 94 ee 00 	call	0x1dc	; 0x1dc <LCD_DisplayString>
                LCD_DisplayString_NoClear(17, second_pause2);
    1356:	63 ea       	ldi	r22, 0xA3	; 163
    1358:	71 e0       	ldi	r23, 0x01	; 1
    135a:	81 e1       	ldi	r24, 0x11	; 17
    135c:	0e 94 17 01 	call	0x22e	; 0x22e <LCD_DisplayString_NoClear>
            }
            break;
    1360:	14 c0       	rjmp	.+40     	; 0x138a <SMTick7+0x164>
    1362:	13 c0       	rjmp	.+38     	; 0x138a <SMTick7+0x164>
        case SM7_paused2:
            if(!paused_g){
    1364:	80 91 94 01 	lds	r24, 0x0194
    1368:	88 23       	and	r24, r24
    136a:	11 f4       	brne	.+4      	; 0x1370 <SMTick7+0x14a>
                state = SM7_init;
    136c:	1e 82       	std	Y+6, r1	; 0x06
    136e:	1d 82       	std	Y+5, r1	; 0x05
            }
            if(paused_g == 1){
    1370:	80 91 94 01 	lds	r24, 0x0194
    1374:	81 30       	cpi	r24, 0x01	; 1
    1376:	29 f4       	brne	.+10     	; 0x1382 <SMTick7+0x15c>
                state = SM7_paused1;
    1378:	85 e0       	ldi	r24, 0x05	; 5
    137a:	90 e0       	ldi	r25, 0x00	; 0
    137c:	9e 83       	std	Y+6, r25	; 0x06
    137e:	8d 83       	std	Y+5, r24	; 0x05
            }
            break;
    1380:	04 c0       	rjmp	.+8      	; 0x138a <SMTick7+0x164>
    1382:	03 c0       	rjmp	.+6      	; 0x138a <SMTick7+0x164>
        default:
            state = SM7_init;
    1384:	1e 82       	std	Y+6, r1	; 0x06
    1386:	1d 82       	std	Y+5, r1	; 0x05
            break;
    1388:	00 00       	nop
    }
    switch(state){
    138a:	8d 81       	ldd	r24, Y+5	; 0x05
    138c:	9e 81       	ldd	r25, Y+6	; 0x06
    138e:	aa 27       	eor	r26, r26
    1390:	97 fd       	sbrc	r25, 7
    1392:	a0 95       	com	r26
    1394:	ba 2f       	mov	r27, r26
    1396:	40 e0       	ldi	r20, 0x00	; 0
    1398:	50 e0       	ldi	r21, 0x00	; 0
    139a:	26 e0       	ldi	r18, 0x06	; 6
    139c:	30 e0       	ldi	r19, 0x00	; 0
    139e:	84 1b       	sub	r24, r20
    13a0:	95 0b       	sbc	r25, r21
    13a2:	28 17       	cp	r18, r24
    13a4:	39 07       	cpc	r19, r25
    13a6:	08 f4       	brcc	.+2      	; 0x13aa <SMTick7+0x184>
    13a8:	73 c0       	rjmp	.+230    	; 0x1490 <SMTick7+0x26a>
    13aa:	83 5b       	subi	r24, 0xB3	; 179
    13ac:	9f 4f       	sbci	r25, 0xFF	; 255
    13ae:	fc 01       	movw	r30, r24
    13b0:	d9 c3       	rjmp	.+1970   	; 0x1b64 <__tablejump2__>
        case SM7_init:
            char_to_string(score, string_score);
    13b2:	80 91 98 01 	lds	r24, 0x0198
    13b6:	69 e9       	ldi	r22, 0x99	; 153
    13b8:	71 e0       	ldi	r23, 0x01	; 1
    13ba:	8a d9       	rcall	.-3308   	; 0x6d0 <char_to_string>
            LCD_DisplayString(1, score_line);
    13bc:	67 e0       	ldi	r22, 0x07	; 7
    13be:	71 e0       	ldi	r23, 0x01	; 1
    13c0:	81 e0       	ldi	r24, 0x01	; 1
    13c2:	0e 94 ee 00 	call	0x1dc	; 0x1dc <LCD_DisplayString>
            LCD_DisplayString_NoClear(17, string_score);
    13c6:	69 e9       	ldi	r22, 0x99	; 153
    13c8:	71 e0       	ldi	r23, 0x01	; 1
    13ca:	81 e1       	ldi	r24, 0x11	; 17
    13cc:	0e 94 17 01 	call	0x22e	; 0x22e <LCD_DisplayString_NoClear>
            break;
    13d0:	62 c0       	rjmp	.+196    	; 0x1496 <SMTick7+0x270>
        case SM7_wait:
            break;
        case SM7_update:
            char_to_string(score, string_score);
    13d2:	80 91 98 01 	lds	r24, 0x0198
    13d6:	69 e9       	ldi	r22, 0x99	; 153
    13d8:	71 e0       	ldi	r23, 0x01	; 1
    13da:	7a d9       	rcall	.-3340   	; 0x6d0 <char_to_string>
            LCD_DisplayString_NoClear(17, string_score);
    13dc:	69 e9       	ldi	r22, 0x99	; 153
    13de:	71 e0       	ldi	r23, 0x01	; 1
    13e0:	81 e1       	ldi	r24, 0x11	; 17
    13e2:	0e 94 17 01 	call	0x22e	; 0x22e <LCD_DisplayString_NoClear>
            to_display_g = 0;
    13e6:	10 92 0d 02 	sts	0x020D, r1
            break;
    13ea:	55 c0       	rjmp	.+170    	; 0x1496 <SMTick7+0x270>
        case SM7_game_over:
            break;
        case SM7_paused1:
            break;
        case SM7_paused2:
            for(int i = posBegin, j = 0; i < posEnd; ++i, ++j){
    13ec:	80 91 a7 01 	lds	r24, 0x01A7
    13f0:	88 2f       	mov	r24, r24
    13f2:	90 e0       	ldi	r25, 0x00	; 0
    13f4:	9a 83       	std	Y+2, r25	; 0x02
    13f6:	89 83       	std	Y+1, r24	; 0x01
    13f8:	1c 82       	std	Y+4, r1	; 0x04
    13fa:	1b 82       	std	Y+3, r1	; 0x03
    13fc:	16 c0       	rjmp	.+44     	; 0x142a <SMTick7+0x204>
                paginate[j] = second_pause[i];
    13fe:	89 81       	ldd	r24, Y+1	; 0x01
    1400:	9a 81       	ldd	r25, Y+2	; 0x02
    1402:	8e 5b       	subi	r24, 0xBE	; 190
    1404:	9e 4f       	sbci	r25, 0xFE	; 254
    1406:	fc 01       	movw	r30, r24
    1408:	20 81       	ld	r18, Z
    140a:	8b 81       	ldd	r24, Y+3	; 0x03
    140c:	9c 81       	ldd	r25, Y+4	; 0x04
    140e:	83 50       	subi	r24, 0x03	; 3
    1410:	9e 4f       	sbci	r25, 0xFE	; 254
    1412:	fc 01       	movw	r30, r24
    1414:	20 83       	st	Z, r18
        case SM7_game_over:
            break;
        case SM7_paused1:
            break;
        case SM7_paused2:
            for(int i = posBegin, j = 0; i < posEnd; ++i, ++j){
    1416:	89 81       	ldd	r24, Y+1	; 0x01
    1418:	9a 81       	ldd	r25, Y+2	; 0x02
    141a:	01 96       	adiw	r24, 0x01	; 1
    141c:	9a 83       	std	Y+2, r25	; 0x02
    141e:	89 83       	std	Y+1, r24	; 0x01
    1420:	8b 81       	ldd	r24, Y+3	; 0x03
    1422:	9c 81       	ldd	r25, Y+4	; 0x04
    1424:	01 96       	adiw	r24, 0x01	; 1
    1426:	9c 83       	std	Y+4, r25	; 0x04
    1428:	8b 83       	std	Y+3, r24	; 0x03
    142a:	80 91 62 01 	lds	r24, 0x0162
    142e:	28 2f       	mov	r18, r24
    1430:	30 e0       	ldi	r19, 0x00	; 0
    1432:	89 81       	ldd	r24, Y+1	; 0x01
    1434:	9a 81       	ldd	r25, Y+2	; 0x02
    1436:	82 17       	cp	r24, r18
    1438:	93 07       	cpc	r25, r19
    143a:	0c f3       	brlt	.-62     	; 0x13fe <SMTick7+0x1d8>
                paginate[j] = second_pause[i];
            }
            LCD_DisplayString(1, paginate);
    143c:	6d ef       	ldi	r22, 0xFD	; 253
    143e:	71 e0       	ldi	r23, 0x01	; 1
    1440:	81 e0       	ldi	r24, 0x01	; 1
    1442:	0e 94 ee 00 	call	0x1dc	; 0x1dc <LCD_DisplayString>
            ++posBegin;
    1446:	80 91 a7 01 	lds	r24, 0x01A7
    144a:	8f 5f       	subi	r24, 0xFF	; 255
    144c:	80 93 a7 01 	sts	0x01A7, r24
            if(second_pause[posEnd] != '\0' ){
    1450:	80 91 62 01 	lds	r24, 0x0162
    1454:	88 2f       	mov	r24, r24
    1456:	90 e0       	ldi	r25, 0x00	; 0
    1458:	8e 5b       	subi	r24, 0xBE	; 190
    145a:	9e 4f       	sbci	r25, 0xFE	; 254
    145c:	fc 01       	movw	r30, r24
    145e:	80 81       	ld	r24, Z
    1460:	88 23       	and	r24, r24
    1462:	29 f0       	breq	.+10     	; 0x146e <SMTick7+0x248>
                ++posEnd;
    1464:	80 91 62 01 	lds	r24, 0x0162
    1468:	8f 5f       	subi	r24, 0xFF	; 255
    146a:	80 93 62 01 	sts	0x0162, r24
            }
            if(second_pause[posBegin] == '\0'){
    146e:	80 91 a7 01 	lds	r24, 0x01A7
    1472:	88 2f       	mov	r24, r24
    1474:	90 e0       	ldi	r25, 0x00	; 0
    1476:	8e 5b       	subi	r24, 0xBE	; 190
    1478:	9e 4f       	sbci	r25, 0xFE	; 254
    147a:	fc 01       	movw	r30, r24
    147c:	80 81       	ld	r24, Z
    147e:	88 23       	and	r24, r24
    1480:	31 f4       	brne	.+12     	; 0x148e <SMTick7+0x268>
                posBegin = 0;
    1482:	10 92 a7 01 	sts	0x01A7, r1
                posEnd = 16;
    1486:	80 e1       	ldi	r24, 0x10	; 16
    1488:	80 93 62 01 	sts	0x0162, r24
            }  
            break;
    148c:	04 c0       	rjmp	.+8      	; 0x1496 <SMTick7+0x270>
    148e:	03 c0       	rjmp	.+6      	; 0x1496 <SMTick7+0x270>
        default:
            break;
    1490:	00 00       	nop
    1492:	01 c0       	rjmp	.+2      	; 0x1496 <SMTick7+0x270>
            char_to_string(score, string_score);
            LCD_DisplayString(1, score_line);
            LCD_DisplayString_NoClear(17, string_score);
            break;
        case SM7_wait:
            break;
    1494:	00 00       	nop
            }  
            break;
        default:
            break;
    }
    return state;
    1496:	8d 81       	ldd	r24, Y+5	; 0x05
    1498:	9e 81       	ldd	r25, Y+6	; 0x06
}
    149a:	26 96       	adiw	r28, 0x06	; 6
    149c:	0f b6       	in	r0, 0x3f	; 63
    149e:	f8 94       	cli
    14a0:	de bf       	out	0x3e, r29	; 62
    14a2:	0f be       	out	0x3f, r0	; 63
    14a4:	cd bf       	out	0x3d, r28	; 61
    14a6:	df 91       	pop	r29
    14a8:	cf 91       	pop	r28
    14aa:	08 95       	ret

000014ac <main>:

int main(void){
    14ac:	0f 93       	push	r16
    14ae:	1f 93       	push	r17
    14b0:	cf 93       	push	r28
    14b2:	df 93       	push	r29
    14b4:	cd b7       	in	r28, 0x3d	; 61
    14b6:	de b7       	in	r29, 0x3e	; 62
    14b8:	ce 56       	subi	r28, 0x6E	; 110
    14ba:	d1 09       	sbc	r29, r1
    14bc:	0f b6       	in	r0, 0x3f	; 63
    14be:	f8 94       	cli
    14c0:	de bf       	out	0x3e, r29	; 62
    14c2:	0f be       	out	0x3f, r0	; 63
    14c4:	cd bf       	out	0x3d, r28	; 61

    //DDRA = 0x03; PORTA = 0xFC; // LCD Control Lines
    DDRA = 0x3F; PORTA = 0xC0; //LCD Control lines, Keypad.
    14c6:	81 e2       	ldi	r24, 0x21	; 33
    14c8:	90 e0       	ldi	r25, 0x00	; 0
    14ca:	2f e3       	ldi	r18, 0x3F	; 63
    14cc:	fc 01       	movw	r30, r24
    14ce:	20 83       	st	Z, r18
    14d0:	82 e2       	ldi	r24, 0x22	; 34
    14d2:	90 e0       	ldi	r25, 0x00	; 0
    14d4:	20 ec       	ldi	r18, 0xC0	; 192
    14d6:	fc 01       	movw	r30, r24
    14d8:	20 83       	st	Z, r18
    DDRB = 0xFF; PORTB = 0x00;
    14da:	84 e2       	ldi	r24, 0x24	; 36
    14dc:	90 e0       	ldi	r25, 0x00	; 0
    14de:	2f ef       	ldi	r18, 0xFF	; 255
    14e0:	fc 01       	movw	r30, r24
    14e2:	20 83       	st	Z, r18
    14e4:	85 e2       	ldi	r24, 0x25	; 37
    14e6:	90 e0       	ldi	r25, 0x00	; 0
    14e8:	fc 01       	movw	r30, r24
    14ea:	10 82       	st	Z, r1
    DDRC = 0x0F; PORTC = 0xF0; // Keypad Input
    14ec:	87 e2       	ldi	r24, 0x27	; 39
    14ee:	90 e0       	ldi	r25, 0x00	; 0
    14f0:	2f e0       	ldi	r18, 0x0F	; 15
    14f2:	fc 01       	movw	r30, r24
    14f4:	20 83       	st	Z, r18
    14f6:	88 e2       	ldi	r24, 0x28	; 40
    14f8:	90 e0       	ldi	r25, 0x00	; 0
    14fa:	20 ef       	ldi	r18, 0xF0	; 240
    14fc:	fc 01       	movw	r30, r24
    14fe:	20 83       	st	Z, r18
    DDRD = 0xFF; PORTD = 0x00; // LCD Data lines
    1500:	8a e2       	ldi	r24, 0x2A	; 42
    1502:	90 e0       	ldi	r25, 0x00	; 0
    1504:	2f ef       	ldi	r18, 0xFF	; 255
    1506:	fc 01       	movw	r30, r24
    1508:	20 83       	st	Z, r18
    150a:	8b e2       	ldi	r24, 0x2B	; 43
    150c:	90 e0       	ldi	r25, 0x00	; 0
    150e:	fc 01       	movw	r30, r24
    1510:	10 82       	st	Z, r1
    
    unsigned long int SMTick1_calc = 10;
    1512:	8a e0       	ldi	r24, 0x0A	; 10
    1514:	90 e0       	ldi	r25, 0x00	; 0
    1516:	a0 e0       	ldi	r26, 0x00	; 0
    1518:	b0 e0       	ldi	r27, 0x00	; 0
    151a:	8b 83       	std	Y+3, r24	; 0x03
    151c:	9c 83       	std	Y+4, r25	; 0x04
    151e:	ad 83       	std	Y+5, r26	; 0x05
    1520:	be 83       	std	Y+6, r27	; 0x06
    unsigned long int SMTick2_calc = 2;
    1522:	82 e0       	ldi	r24, 0x02	; 2
    1524:	90 e0       	ldi	r25, 0x00	; 0
    1526:	a0 e0       	ldi	r26, 0x00	; 0
    1528:	b0 e0       	ldi	r27, 0x00	; 0
    152a:	8f 83       	std	Y+7, r24	; 0x07
    152c:	98 87       	std	Y+8, r25	; 0x08
    152e:	a9 87       	std	Y+9, r26	; 0x09
    1530:	ba 87       	std	Y+10, r27	; 0x0a
    unsigned long int SMTick3_calc = 30;
    1532:	8e e1       	ldi	r24, 0x1E	; 30
    1534:	90 e0       	ldi	r25, 0x00	; 0
    1536:	a0 e0       	ldi	r26, 0x00	; 0
    1538:	b0 e0       	ldi	r27, 0x00	; 0
    153a:	8b 87       	std	Y+11, r24	; 0x0b
    153c:	9c 87       	std	Y+12, r25	; 0x0c
    153e:	ad 87       	std	Y+13, r26	; 0x0d
    1540:	be 87       	std	Y+14, r27	; 0x0e
    unsigned long int SMTick4_calc = 26;
    1542:	8a e1       	ldi	r24, 0x1A	; 26
    1544:	90 e0       	ldi	r25, 0x00	; 0
    1546:	a0 e0       	ldi	r26, 0x00	; 0
    1548:	b0 e0       	ldi	r27, 0x00	; 0
    154a:	8f 87       	std	Y+15, r24	; 0x0f
    154c:	98 8b       	std	Y+16, r25	; 0x10
    154e:	a9 8b       	std	Y+17, r26	; 0x11
    1550:	ba 8b       	std	Y+18, r27	; 0x12
    unsigned long int SMTick5_calc = 40;
    1552:	88 e2       	ldi	r24, 0x28	; 40
    1554:	90 e0       	ldi	r25, 0x00	; 0
    1556:	a0 e0       	ldi	r26, 0x00	; 0
    1558:	b0 e0       	ldi	r27, 0x00	; 0
    155a:	8b 8b       	std	Y+19, r24	; 0x13
    155c:	9c 8b       	std	Y+20, r25	; 0x14
    155e:	ad 8b       	std	Y+21, r26	; 0x15
    1560:	be 8b       	std	Y+22, r27	; 0x16
    unsigned long int SMTick6_calc = 250;
    1562:	8a ef       	ldi	r24, 0xFA	; 250
    1564:	90 e0       	ldi	r25, 0x00	; 0
    1566:	a0 e0       	ldi	r26, 0x00	; 0
    1568:	b0 e0       	ldi	r27, 0x00	; 0
    156a:	8f 8b       	std	Y+23, r24	; 0x17
    156c:	98 8f       	std	Y+24, r25	; 0x18
    156e:	a9 8f       	std	Y+25, r26	; 0x19
    1570:	ba 8f       	std	Y+26, r27	; 0x1a
    unsigned long int SMTick7_calc = 10;
    1572:	8a e0       	ldi	r24, 0x0A	; 10
    1574:	90 e0       	ldi	r25, 0x00	; 0
    1576:	a0 e0       	ldi	r26, 0x00	; 0
    1578:	b0 e0       	ldi	r27, 0x00	; 0
    157a:	8b 8f       	std	Y+27, r24	; 0x1b
    157c:	9c 8f       	std	Y+28, r25	; 0x1c
    157e:	ad 8f       	std	Y+29, r26	; 0x1d
    1580:	be 8f       	std	Y+30, r27	; 0x1e

    unsigned long int tmpGCD = 1;
    1582:	81 e0       	ldi	r24, 0x01	; 1
    1584:	90 e0       	ldi	r25, 0x00	; 0
    1586:	a0 e0       	ldi	r26, 0x00	; 0
    1588:	b0 e0       	ldi	r27, 0x00	; 0
    158a:	8f 8f       	std	Y+31, r24	; 0x1f
    158c:	98 a3       	std	Y+32, r25	; 0x20
    158e:	a9 a3       	std	Y+33, r26	; 0x21
    1590:	ba a3       	std	Y+34, r27	; 0x22
    tmpGCD = findGCD(SMTick1_calc, SMTick2_calc);
    1592:	2f 81       	ldd	r18, Y+7	; 0x07
    1594:	38 85       	ldd	r19, Y+8	; 0x08
    1596:	49 85       	ldd	r20, Y+9	; 0x09
    1598:	5a 85       	ldd	r21, Y+10	; 0x0a
    159a:	8b 81       	ldd	r24, Y+3	; 0x03
    159c:	9c 81       	ldd	r25, Y+4	; 0x04
    159e:	ad 81       	ldd	r26, Y+5	; 0x05
    15a0:	be 81       	ldd	r27, Y+6	; 0x06
    15a2:	bc 01       	movw	r22, r24
    15a4:	cd 01       	movw	r24, r26
    15a6:	47 d8       	rcall	.-3954   	; 0x636 <findGCD>
    15a8:	dc 01       	movw	r26, r24
    15aa:	cb 01       	movw	r24, r22
    15ac:	8f 8f       	std	Y+31, r24	; 0x1f
    15ae:	98 a3       	std	Y+32, r25	; 0x20
    15b0:	a9 a3       	std	Y+33, r26	; 0x21
    15b2:	ba a3       	std	Y+34, r27	; 0x22
    tmpGCD = findGCD(SMTick3_calc, tmpGCD);
    15b4:	2f 8d       	ldd	r18, Y+31	; 0x1f
    15b6:	38 a1       	ldd	r19, Y+32	; 0x20
    15b8:	49 a1       	ldd	r20, Y+33	; 0x21
    15ba:	5a a1       	ldd	r21, Y+34	; 0x22
    15bc:	8b 85       	ldd	r24, Y+11	; 0x0b
    15be:	9c 85       	ldd	r25, Y+12	; 0x0c
    15c0:	ad 85       	ldd	r26, Y+13	; 0x0d
    15c2:	be 85       	ldd	r27, Y+14	; 0x0e
    15c4:	bc 01       	movw	r22, r24
    15c6:	cd 01       	movw	r24, r26
    15c8:	36 d8       	rcall	.-3988   	; 0x636 <findGCD>
    15ca:	dc 01       	movw	r26, r24
    15cc:	cb 01       	movw	r24, r22
    15ce:	8f 8f       	std	Y+31, r24	; 0x1f
    15d0:	98 a3       	std	Y+32, r25	; 0x20
    15d2:	a9 a3       	std	Y+33, r26	; 0x21
    15d4:	ba a3       	std	Y+34, r27	; 0x22
    tmpGCD = findGCD(SMTick4_calc, tmpGCD);
    15d6:	2f 8d       	ldd	r18, Y+31	; 0x1f
    15d8:	38 a1       	ldd	r19, Y+32	; 0x20
    15da:	49 a1       	ldd	r20, Y+33	; 0x21
    15dc:	5a a1       	ldd	r21, Y+34	; 0x22
    15de:	8f 85       	ldd	r24, Y+15	; 0x0f
    15e0:	98 89       	ldd	r25, Y+16	; 0x10
    15e2:	a9 89       	ldd	r26, Y+17	; 0x11
    15e4:	ba 89       	ldd	r27, Y+18	; 0x12
    15e6:	bc 01       	movw	r22, r24
    15e8:	cd 01       	movw	r24, r26
    15ea:	25 d8       	rcall	.-4022   	; 0x636 <findGCD>
    15ec:	dc 01       	movw	r26, r24
    15ee:	cb 01       	movw	r24, r22
    15f0:	8f 8f       	std	Y+31, r24	; 0x1f
    15f2:	98 a3       	std	Y+32, r25	; 0x20
    15f4:	a9 a3       	std	Y+33, r26	; 0x21
    15f6:	ba a3       	std	Y+34, r27	; 0x22
    tmpGCD = findGCD(SMTick5_calc, tmpGCD);
    15f8:	2f 8d       	ldd	r18, Y+31	; 0x1f
    15fa:	38 a1       	ldd	r19, Y+32	; 0x20
    15fc:	49 a1       	ldd	r20, Y+33	; 0x21
    15fe:	5a a1       	ldd	r21, Y+34	; 0x22
    1600:	8b 89       	ldd	r24, Y+19	; 0x13
    1602:	9c 89       	ldd	r25, Y+20	; 0x14
    1604:	ad 89       	ldd	r26, Y+21	; 0x15
    1606:	be 89       	ldd	r27, Y+22	; 0x16
    1608:	bc 01       	movw	r22, r24
    160a:	cd 01       	movw	r24, r26
    160c:	14 d8       	rcall	.-4056   	; 0x636 <findGCD>
    160e:	dc 01       	movw	r26, r24
    1610:	cb 01       	movw	r24, r22
    1612:	8f 8f       	std	Y+31, r24	; 0x1f
    1614:	98 a3       	std	Y+32, r25	; 0x20
    1616:	a9 a3       	std	Y+33, r26	; 0x21
    1618:	ba a3       	std	Y+34, r27	; 0x22
    tmpGCD = findGCD(SMTick6_calc, tmpGCD);
    161a:	2f 8d       	ldd	r18, Y+31	; 0x1f
    161c:	38 a1       	ldd	r19, Y+32	; 0x20
    161e:	49 a1       	ldd	r20, Y+33	; 0x21
    1620:	5a a1       	ldd	r21, Y+34	; 0x22
    1622:	8f 89       	ldd	r24, Y+23	; 0x17
    1624:	98 8d       	ldd	r25, Y+24	; 0x18
    1626:	a9 8d       	ldd	r26, Y+25	; 0x19
    1628:	ba 8d       	ldd	r27, Y+26	; 0x1a
    162a:	bc 01       	movw	r22, r24
    162c:	cd 01       	movw	r24, r26
    162e:	03 d8       	rcall	.-4090   	; 0x636 <findGCD>
    1630:	dc 01       	movw	r26, r24
    1632:	cb 01       	movw	r24, r22
    1634:	8f 8f       	std	Y+31, r24	; 0x1f
    1636:	98 a3       	std	Y+32, r25	; 0x20
    1638:	a9 a3       	std	Y+33, r26	; 0x21
    163a:	ba a3       	std	Y+34, r27	; 0x22
    tmpGCD = findGCD(SMTick7_calc, tmpGCD);
    163c:	2f 8d       	ldd	r18, Y+31	; 0x1f
    163e:	38 a1       	ldd	r19, Y+32	; 0x20
    1640:	49 a1       	ldd	r20, Y+33	; 0x21
    1642:	5a a1       	ldd	r21, Y+34	; 0x22
    1644:	8b 8d       	ldd	r24, Y+27	; 0x1b
    1646:	9c 8d       	ldd	r25, Y+28	; 0x1c
    1648:	ad 8d       	ldd	r26, Y+29	; 0x1d
    164a:	be 8d       	ldd	r27, Y+30	; 0x1e
    164c:	bc 01       	movw	r22, r24
    164e:	cd 01       	movw	r24, r26
    1650:	0e 94 1b 03 	call	0x636	; 0x636 <findGCD>
    1654:	dc 01       	movw	r26, r24
    1656:	cb 01       	movw	r24, r22
    1658:	8f 8f       	std	Y+31, r24	; 0x1f
    165a:	98 a3       	std	Y+32, r25	; 0x20
    165c:	a9 a3       	std	Y+33, r26	; 0x21
    165e:	ba a3       	std	Y+34, r27	; 0x22
    
    unsigned long int GCD = tmpGCD;
    1660:	8f 8d       	ldd	r24, Y+31	; 0x1f
    1662:	98 a1       	ldd	r25, Y+32	; 0x20
    1664:	a9 a1       	ldd	r26, Y+33	; 0x21
    1666:	ba a1       	ldd	r27, Y+34	; 0x22
    1668:	8b a3       	std	Y+35, r24	; 0x23
    166a:	9c a3       	std	Y+36, r25	; 0x24
    166c:	ad a3       	std	Y+37, r26	; 0x25
    166e:	be a3       	std	Y+38, r27	; 0x26
     
    unsigned long int SMTick1_period = SMTick1_calc/GCD;
    1670:	8b 81       	ldd	r24, Y+3	; 0x03
    1672:	9c 81       	ldd	r25, Y+4	; 0x04
    1674:	ad 81       	ldd	r26, Y+5	; 0x05
    1676:	be 81       	ldd	r27, Y+6	; 0x06
    1678:	2b a1       	ldd	r18, Y+35	; 0x23
    167a:	3c a1       	ldd	r19, Y+36	; 0x24
    167c:	4d a1       	ldd	r20, Y+37	; 0x25
    167e:	5e a1       	ldd	r21, Y+38	; 0x26
    1680:	bc 01       	movw	r22, r24
    1682:	cd 01       	movw	r24, r26
    1684:	4d d2       	rcall	.+1178   	; 0x1b20 <__udivmodsi4>
    1686:	da 01       	movw	r26, r20
    1688:	c9 01       	movw	r24, r18
    168a:	8f a3       	std	Y+39, r24	; 0x27
    168c:	98 a7       	std	Y+40, r25	; 0x28
    168e:	a9 a7       	std	Y+41, r26	; 0x29
    1690:	ba a7       	std	Y+42, r27	; 0x2a
    unsigned long int SMTick2_period = SMTick2_calc/GCD;
    1692:	8f 81       	ldd	r24, Y+7	; 0x07
    1694:	98 85       	ldd	r25, Y+8	; 0x08
    1696:	a9 85       	ldd	r26, Y+9	; 0x09
    1698:	ba 85       	ldd	r27, Y+10	; 0x0a
    169a:	2b a1       	ldd	r18, Y+35	; 0x23
    169c:	3c a1       	ldd	r19, Y+36	; 0x24
    169e:	4d a1       	ldd	r20, Y+37	; 0x25
    16a0:	5e a1       	ldd	r21, Y+38	; 0x26
    16a2:	bc 01       	movw	r22, r24
    16a4:	cd 01       	movw	r24, r26
    16a6:	3c d2       	rcall	.+1144   	; 0x1b20 <__udivmodsi4>
    16a8:	da 01       	movw	r26, r20
    16aa:	c9 01       	movw	r24, r18
    16ac:	8b a7       	std	Y+43, r24	; 0x2b
    16ae:	9c a7       	std	Y+44, r25	; 0x2c
    16b0:	ad a7       	std	Y+45, r26	; 0x2d
    16b2:	be a7       	std	Y+46, r27	; 0x2e
    unsigned long int SMTick3_period = SMTick3_calc/GCD;
    16b4:	8b 85       	ldd	r24, Y+11	; 0x0b
    16b6:	9c 85       	ldd	r25, Y+12	; 0x0c
    16b8:	ad 85       	ldd	r26, Y+13	; 0x0d
    16ba:	be 85       	ldd	r27, Y+14	; 0x0e
    16bc:	2b a1       	ldd	r18, Y+35	; 0x23
    16be:	3c a1       	ldd	r19, Y+36	; 0x24
    16c0:	4d a1       	ldd	r20, Y+37	; 0x25
    16c2:	5e a1       	ldd	r21, Y+38	; 0x26
    16c4:	bc 01       	movw	r22, r24
    16c6:	cd 01       	movw	r24, r26
    16c8:	2b d2       	rcall	.+1110   	; 0x1b20 <__udivmodsi4>
    16ca:	da 01       	movw	r26, r20
    16cc:	c9 01       	movw	r24, r18
    16ce:	8f a7       	std	Y+47, r24	; 0x2f
    16d0:	98 ab       	std	Y+48, r25	; 0x30
    16d2:	a9 ab       	std	Y+49, r26	; 0x31
    16d4:	ba ab       	std	Y+50, r27	; 0x32
    unsigned long int SMTick4_period = SMTick4_calc/GCD;
    16d6:	8f 85       	ldd	r24, Y+15	; 0x0f
    16d8:	98 89       	ldd	r25, Y+16	; 0x10
    16da:	a9 89       	ldd	r26, Y+17	; 0x11
    16dc:	ba 89       	ldd	r27, Y+18	; 0x12
    16de:	2b a1       	ldd	r18, Y+35	; 0x23
    16e0:	3c a1       	ldd	r19, Y+36	; 0x24
    16e2:	4d a1       	ldd	r20, Y+37	; 0x25
    16e4:	5e a1       	ldd	r21, Y+38	; 0x26
    16e6:	bc 01       	movw	r22, r24
    16e8:	cd 01       	movw	r24, r26
    16ea:	1a d2       	rcall	.+1076   	; 0x1b20 <__udivmodsi4>
    16ec:	da 01       	movw	r26, r20
    16ee:	c9 01       	movw	r24, r18
    16f0:	8b ab       	std	Y+51, r24	; 0x33
    16f2:	9c ab       	std	Y+52, r25	; 0x34
    16f4:	ad ab       	std	Y+53, r26	; 0x35
    16f6:	be ab       	std	Y+54, r27	; 0x36
    unsigned long int SMTick5_period = SMTick5_calc/GCD;
    16f8:	8b 89       	ldd	r24, Y+19	; 0x13
    16fa:	9c 89       	ldd	r25, Y+20	; 0x14
    16fc:	ad 89       	ldd	r26, Y+21	; 0x15
    16fe:	be 89       	ldd	r27, Y+22	; 0x16
    1700:	2b a1       	ldd	r18, Y+35	; 0x23
    1702:	3c a1       	ldd	r19, Y+36	; 0x24
    1704:	4d a1       	ldd	r20, Y+37	; 0x25
    1706:	5e a1       	ldd	r21, Y+38	; 0x26
    1708:	bc 01       	movw	r22, r24
    170a:	cd 01       	movw	r24, r26
    170c:	09 d2       	rcall	.+1042   	; 0x1b20 <__udivmodsi4>
    170e:	da 01       	movw	r26, r20
    1710:	c9 01       	movw	r24, r18
    1712:	8f ab       	std	Y+55, r24	; 0x37
    1714:	98 af       	std	Y+56, r25	; 0x38
    1716:	a9 af       	std	Y+57, r26	; 0x39
    1718:	ba af       	std	Y+58, r27	; 0x3a
    unsigned long int SMTick6_period = SMTick6_calc/GCD;
    171a:	8f 89       	ldd	r24, Y+23	; 0x17
    171c:	98 8d       	ldd	r25, Y+24	; 0x18
    171e:	a9 8d       	ldd	r26, Y+25	; 0x19
    1720:	ba 8d       	ldd	r27, Y+26	; 0x1a
    1722:	2b a1       	ldd	r18, Y+35	; 0x23
    1724:	3c a1       	ldd	r19, Y+36	; 0x24
    1726:	4d a1       	ldd	r20, Y+37	; 0x25
    1728:	5e a1       	ldd	r21, Y+38	; 0x26
    172a:	bc 01       	movw	r22, r24
    172c:	cd 01       	movw	r24, r26
    172e:	f8 d1       	rcall	.+1008   	; 0x1b20 <__udivmodsi4>
    1730:	da 01       	movw	r26, r20
    1732:	c9 01       	movw	r24, r18
    1734:	8b af       	std	Y+59, r24	; 0x3b
    1736:	9c af       	std	Y+60, r25	; 0x3c
    1738:	ad af       	std	Y+61, r26	; 0x3d
    173a:	be af       	std	Y+62, r27	; 0x3e
    unsigned long int SMTick7_period = SMTick7_calc/GCD;
    173c:	8e 01       	movw	r16, r28
    173e:	01 5c       	subi	r16, 0xC1	; 193
    1740:	1f 4f       	sbci	r17, 0xFF	; 255
    1742:	8b 8d       	ldd	r24, Y+27	; 0x1b
    1744:	9c 8d       	ldd	r25, Y+28	; 0x1c
    1746:	ad 8d       	ldd	r26, Y+29	; 0x1d
    1748:	be 8d       	ldd	r27, Y+30	; 0x1e
    174a:	2b a1       	ldd	r18, Y+35	; 0x23
    174c:	3c a1       	ldd	r19, Y+36	; 0x24
    174e:	4d a1       	ldd	r20, Y+37	; 0x25
    1750:	5e a1       	ldd	r21, Y+38	; 0x26
    1752:	bc 01       	movw	r22, r24
    1754:	cd 01       	movw	r24, r26
    1756:	e4 d1       	rcall	.+968    	; 0x1b20 <__udivmodsi4>
    1758:	da 01       	movw	r26, r20
    175a:	c9 01       	movw	r24, r18
    175c:	f8 01       	movw	r30, r16
    175e:	80 83       	st	Z, r24
    1760:	91 83       	std	Z+1, r25	; 0x01
    1762:	a2 83       	std	Z+2, r26	; 0x02
    1764:	b3 83       	std	Z+3, r27	; 0x03

    //Array of task pointers...
    static task task1, task2, task3, task4, task5, task6, task7;
    task *tasks[] = {&task1, &task2, &task3, &task4, &task5, &task6, &task7};
    1766:	ce 01       	movw	r24, r28
    1768:	8b 5b       	subi	r24, 0xBB	; 187
    176a:	9f 4f       	sbci	r25, 0xFF	; 255
    176c:	2e e0       	ldi	r18, 0x0E	; 14
    176e:	ee e6       	ldi	r30, 0x6E	; 110
    1770:	f1 e0       	ldi	r31, 0x01	; 1
    1772:	dc 01       	movw	r26, r24
    1774:	01 90       	ld	r0, Z+
    1776:	0d 92       	st	X+, r0
    1778:	2a 95       	dec	r18
    177a:	e1 f7       	brne	.-8      	; 0x1774 <main+0x2c8>
    const unsigned short numTasks = 
    177c:	ce 01       	movw	r24, r28
    177e:	8d 5b       	subi	r24, 0xBD	; 189
    1780:	9f 4f       	sbci	r25, 0xFF	; 255
    1782:	27 e0       	ldi	r18, 0x07	; 7
    1784:	30 e0       	ldi	r19, 0x00	; 0
    1786:	fc 01       	movw	r30, r24
    1788:	31 83       	std	Z+1, r19	; 0x01
    178a:	20 83       	st	Z, r18
    sizeof(tasks)/sizeof(task*);
    
    //Initializing the task components
    task1.state = -1;
    178c:	8f ef       	ldi	r24, 0xFF	; 255
    178e:	9f ef       	ldi	r25, 0xFF	; 255
    1790:	90 93 a9 01 	sts	0x01A9, r25
    1794:	80 93 a8 01 	sts	0x01A8, r24
    task1.period = SMTick1_period;
    1798:	8f a1       	ldd	r24, Y+39	; 0x27
    179a:	98 a5       	ldd	r25, Y+40	; 0x28
    179c:	a9 a5       	ldd	r26, Y+41	; 0x29
    179e:	ba a5       	ldd	r27, Y+42	; 0x2a
    17a0:	80 93 aa 01 	sts	0x01AA, r24
    17a4:	90 93 ab 01 	sts	0x01AB, r25
    17a8:	a0 93 ac 01 	sts	0x01AC, r26
    17ac:	b0 93 ad 01 	sts	0x01AD, r27
    task1.elapsedTime = SMTick1_period;
    17b0:	8f a1       	ldd	r24, Y+39	; 0x27
    17b2:	98 a5       	ldd	r25, Y+40	; 0x28
    17b4:	a9 a5       	ldd	r26, Y+41	; 0x29
    17b6:	ba a5       	ldd	r27, Y+42	; 0x2a
    17b8:	80 93 ae 01 	sts	0x01AE, r24
    17bc:	90 93 af 01 	sts	0x01AF, r25
    17c0:	a0 93 b0 01 	sts	0x01B0, r26
    17c4:	b0 93 b1 01 	sts	0x01B1, r27
    task1.TickFct = &SMTick1;
    17c8:	83 e6       	ldi	r24, 0x63	; 99
    17ca:	94 e0       	ldi	r25, 0x04	; 4
    17cc:	90 93 b3 01 	sts	0x01B3, r25
    17d0:	80 93 b2 01 	sts	0x01B2, r24
    
    task2.state = -1;
    17d4:	8f ef       	ldi	r24, 0xFF	; 255
    17d6:	9f ef       	ldi	r25, 0xFF	; 255
    17d8:	90 93 b5 01 	sts	0x01B5, r25
    17dc:	80 93 b4 01 	sts	0x01B4, r24
    task2.period = SMTick2_period;
    17e0:	8b a5       	ldd	r24, Y+43	; 0x2b
    17e2:	9c a5       	ldd	r25, Y+44	; 0x2c
    17e4:	ad a5       	ldd	r26, Y+45	; 0x2d
    17e6:	be a5       	ldd	r27, Y+46	; 0x2e
    17e8:	80 93 b6 01 	sts	0x01B6, r24
    17ec:	90 93 b7 01 	sts	0x01B7, r25
    17f0:	a0 93 b8 01 	sts	0x01B8, r26
    17f4:	b0 93 b9 01 	sts	0x01B9, r27
    task2.elapsedTime = SMTick2_period;
    17f8:	8b a5       	ldd	r24, Y+43	; 0x2b
    17fa:	9c a5       	ldd	r25, Y+44	; 0x2c
    17fc:	ad a5       	ldd	r26, Y+45	; 0x2d
    17fe:	be a5       	ldd	r27, Y+46	; 0x2e
    1800:	80 93 ba 01 	sts	0x01BA, r24
    1804:	90 93 bb 01 	sts	0x01BB, r25
    1808:	a0 93 bc 01 	sts	0x01BC, r26
    180c:	b0 93 bd 01 	sts	0x01BD, r27
    task2.TickFct = &SMTick2;
    1810:	83 ec       	ldi	r24, 0xC3	; 195
    1812:	94 e0       	ldi	r25, 0x04	; 4
    1814:	90 93 bf 01 	sts	0x01BF, r25
    1818:	80 93 be 01 	sts	0x01BE, r24
    
    task3.state = -1;
    181c:	8f ef       	ldi	r24, 0xFF	; 255
    181e:	9f ef       	ldi	r25, 0xFF	; 255
    1820:	90 93 c1 01 	sts	0x01C1, r25
    1824:	80 93 c0 01 	sts	0x01C0, r24
    task3.period = SMTick3_period;
    1828:	8f a5       	ldd	r24, Y+47	; 0x2f
    182a:	98 a9       	ldd	r25, Y+48	; 0x30
    182c:	a9 a9       	ldd	r26, Y+49	; 0x31
    182e:	ba a9       	ldd	r27, Y+50	; 0x32
    1830:	80 93 c2 01 	sts	0x01C2, r24
    1834:	90 93 c3 01 	sts	0x01C3, r25
    1838:	a0 93 c4 01 	sts	0x01C4, r26
    183c:	b0 93 c5 01 	sts	0x01C5, r27
    task3.elapsedTime = SMTick3_period;
    1840:	8f a5       	ldd	r24, Y+47	; 0x2f
    1842:	98 a9       	ldd	r25, Y+48	; 0x30
    1844:	a9 a9       	ldd	r26, Y+49	; 0x31
    1846:	ba a9       	ldd	r27, Y+50	; 0x32
    1848:	80 93 c6 01 	sts	0x01C6, r24
    184c:	90 93 c7 01 	sts	0x01C7, r25
    1850:	a0 93 c8 01 	sts	0x01C8, r26
    1854:	b0 93 c9 01 	sts	0x01C9, r27
    task3.TickFct = &SMTick3;
    1858:	8a e3       	ldi	r24, 0x3A	; 58
    185a:	95 e0       	ldi	r25, 0x05	; 5
    185c:	90 93 cb 01 	sts	0x01CB, r25
    1860:	80 93 ca 01 	sts	0x01CA, r24
    
    task4.state = -1;
    1864:	8f ef       	ldi	r24, 0xFF	; 255
    1866:	9f ef       	ldi	r25, 0xFF	; 255
    1868:	90 93 cd 01 	sts	0x01CD, r25
    186c:	80 93 cc 01 	sts	0x01CC, r24
    task4.period = SMTick4_period;
    1870:	8b a9       	ldd	r24, Y+51	; 0x33
    1872:	9c a9       	ldd	r25, Y+52	; 0x34
    1874:	ad a9       	ldd	r26, Y+53	; 0x35
    1876:	be a9       	ldd	r27, Y+54	; 0x36
    1878:	80 93 ce 01 	sts	0x01CE, r24
    187c:	90 93 cf 01 	sts	0x01CF, r25
    1880:	a0 93 d0 01 	sts	0x01D0, r26
    1884:	b0 93 d1 01 	sts	0x01D1, r27
    task4.elapsedTime = SMTick4_period;
    1888:	8b a9       	ldd	r24, Y+51	; 0x33
    188a:	9c a9       	ldd	r25, Y+52	; 0x34
    188c:	ad a9       	ldd	r26, Y+53	; 0x35
    188e:	be a9       	ldd	r27, Y+54	; 0x36
    1890:	80 93 d2 01 	sts	0x01D2, r24
    1894:	90 93 d3 01 	sts	0x01D3, r25
    1898:	a0 93 d4 01 	sts	0x01D4, r26
    189c:	b0 93 d5 01 	sts	0x01D5, r27
    task4.TickFct = &SMTick4;
    18a0:	81 ee       	ldi	r24, 0xE1	; 225
    18a2:	95 e0       	ldi	r25, 0x05	; 5
    18a4:	90 93 d7 01 	sts	0x01D7, r25
    18a8:	80 93 d6 01 	sts	0x01D6, r24
    
    task5.state = -1;
    18ac:	8f ef       	ldi	r24, 0xFF	; 255
    18ae:	9f ef       	ldi	r25, 0xFF	; 255
    18b0:	90 93 d9 01 	sts	0x01D9, r25
    18b4:	80 93 d8 01 	sts	0x01D8, r24
    task5.period = SMTick5_period;
    18b8:	8f a9       	ldd	r24, Y+55	; 0x37
    18ba:	98 ad       	ldd	r25, Y+56	; 0x38
    18bc:	a9 ad       	ldd	r26, Y+57	; 0x39
    18be:	ba ad       	ldd	r27, Y+58	; 0x3a
    18c0:	80 93 da 01 	sts	0x01DA, r24
    18c4:	90 93 db 01 	sts	0x01DB, r25
    18c8:	a0 93 dc 01 	sts	0x01DC, r26
    18cc:	b0 93 dd 01 	sts	0x01DD, r27
    task5.elapsedTime = SMTick5_period;
    18d0:	8f a9       	ldd	r24, Y+55	; 0x37
    18d2:	98 ad       	ldd	r25, Y+56	; 0x38
    18d4:	a9 ad       	ldd	r26, Y+57	; 0x39
    18d6:	ba ad       	ldd	r27, Y+58	; 0x3a
    18d8:	80 93 de 01 	sts	0x01DE, r24
    18dc:	90 93 df 01 	sts	0x01DF, r25
    18e0:	a0 93 e0 01 	sts	0x01E0, r26
    18e4:	b0 93 e1 01 	sts	0x01E1, r27
    task5.TickFct = &SMTick5;
    18e8:	8c ea       	ldi	r24, 0xAC	; 172
    18ea:	96 e0       	ldi	r25, 0x06	; 6
    18ec:	90 93 e3 01 	sts	0x01E3, r25
    18f0:	80 93 e2 01 	sts	0x01E2, r24

    task6.state = -1;
    18f4:	8f ef       	ldi	r24, 0xFF	; 255
    18f6:	9f ef       	ldi	r25, 0xFF	; 255
    18f8:	90 93 e5 01 	sts	0x01E5, r25
    18fc:	80 93 e4 01 	sts	0x01E4, r24
    task6.period = SMTick6_period;
    1900:	8b ad       	ldd	r24, Y+59	; 0x3b
    1902:	9c ad       	ldd	r25, Y+60	; 0x3c
    1904:	ad ad       	ldd	r26, Y+61	; 0x3d
    1906:	be ad       	ldd	r27, Y+62	; 0x3e
    1908:	80 93 e6 01 	sts	0x01E6, r24
    190c:	90 93 e7 01 	sts	0x01E7, r25
    1910:	a0 93 e8 01 	sts	0x01E8, r26
    1914:	b0 93 e9 01 	sts	0x01E9, r27
    task6.elapsedTime = SMTick6_period;
    1918:	8b ad       	ldd	r24, Y+59	; 0x3b
    191a:	9c ad       	ldd	r25, Y+60	; 0x3c
    191c:	ad ad       	ldd	r26, Y+61	; 0x3d
    191e:	be ad       	ldd	r27, Y+62	; 0x3e
    1920:	80 93 ea 01 	sts	0x01EA, r24
    1924:	90 93 eb 01 	sts	0x01EB, r25
    1928:	a0 93 ec 01 	sts	0x01EC, r26
    192c:	b0 93 ed 01 	sts	0x01ED, r27
    task6.TickFct = &SMTick6;
    1930:	81 ec       	ldi	r24, 0xC1	; 193
    1932:	97 e0       	ldi	r25, 0x07	; 7
    1934:	90 93 ef 01 	sts	0x01EF, r25
    1938:	80 93 ee 01 	sts	0x01EE, r24

    task7.state = -1;
    193c:	8f ef       	ldi	r24, 0xFF	; 255
    193e:	9f ef       	ldi	r25, 0xFF	; 255
    1940:	90 93 f1 01 	sts	0x01F1, r25
    1944:	80 93 f0 01 	sts	0x01F0, r24
    task7.period = SMTick7_period;
    1948:	ce 01       	movw	r24, r28
    194a:	cf 96       	adiw	r24, 0x3f	; 63
    194c:	fc 01       	movw	r30, r24
    194e:	80 81       	ld	r24, Z
    1950:	91 81       	ldd	r25, Z+1	; 0x01
    1952:	a2 81       	ldd	r26, Z+2	; 0x02
    1954:	b3 81       	ldd	r27, Z+3	; 0x03
    1956:	80 93 f2 01 	sts	0x01F2, r24
    195a:	90 93 f3 01 	sts	0x01F3, r25
    195e:	a0 93 f4 01 	sts	0x01F4, r26
    1962:	b0 93 f5 01 	sts	0x01F5, r27
    task7.elapsedTime = SMTick7_period;
    1966:	ce 01       	movw	r24, r28
    1968:	cf 96       	adiw	r24, 0x3f	; 63
    196a:	fc 01       	movw	r30, r24
    196c:	80 81       	ld	r24, Z
    196e:	91 81       	ldd	r25, Z+1	; 0x01
    1970:	a2 81       	ldd	r26, Z+2	; 0x02
    1972:	b3 81       	ldd	r27, Z+3	; 0x03
    1974:	80 93 f6 01 	sts	0x01F6, r24
    1978:	90 93 f7 01 	sts	0x01F7, r25
    197c:	a0 93 f8 01 	sts	0x01F8, r26
    1980:	b0 93 f9 01 	sts	0x01F9, r27
    task7.TickFct = &SMTick7;
    1984:	83 e1       	ldi	r24, 0x13	; 19
    1986:	99 e0       	ldi	r25, 0x09	; 9
    1988:	90 93 fb 01 	sts	0x01FB, r25
    198c:	80 93 fa 01 	sts	0x01FA, r24

    TimerSet(GCD);
    1990:	8b a1       	ldd	r24, Y+35	; 0x23
    1992:	9c a1       	ldd	r25, Y+36	; 0x24
    1994:	ad a1       	ldd	r26, Y+37	; 0x25
    1996:	be a1       	ldd	r27, Y+38	; 0x26
    1998:	bc 01       	movw	r22, r24
    199a:	cd 01       	movw	r24, r26
    199c:	0e 94 e0 02 	call	0x5c0	; 0x5c0 <TimerSet>
    LCD_init();
    19a0:	0e 94 7d 00 	call	0xfa	; 0xfa <LCD_init>
    TimerOn();
    19a4:	0e 94 44 02 	call	0x488	; 0x488 <TimerOn>
    unsigned short i;
    
    while(1){
        for(i = 0; i < numTasks; ++i){
    19a8:	1a 82       	std	Y+2, r1	; 0x02
    19aa:	19 82       	std	Y+1, r1	; 0x01
    19ac:	92 c0       	rjmp	.+292    	; 0x1ad2 <main+0x626>
            if(tasks[i]->elapsedTime ==
    19ae:	9e 01       	movw	r18, r28
    19b0:	2b 5b       	subi	r18, 0xBB	; 187
    19b2:	3f 4f       	sbci	r19, 0xFF	; 255
    19b4:	89 81       	ldd	r24, Y+1	; 0x01
    19b6:	9a 81       	ldd	r25, Y+2	; 0x02
    19b8:	88 0f       	add	r24, r24
    19ba:	99 1f       	adc	r25, r25
    19bc:	82 0f       	add	r24, r18
    19be:	93 1f       	adc	r25, r19
    19c0:	fc 01       	movw	r30, r24
    19c2:	80 81       	ld	r24, Z
    19c4:	91 81       	ldd	r25, Z+1	; 0x01
    19c6:	fc 01       	movw	r30, r24
    19c8:	26 81       	ldd	r18, Z+6	; 0x06
    19ca:	37 81       	ldd	r19, Z+7	; 0x07
    19cc:	40 85       	ldd	r20, Z+8	; 0x08
    19ce:	51 85       	ldd	r21, Z+9	; 0x09
               tasks[i]->period){
    19d0:	be 01       	movw	r22, r28
    19d2:	6b 5b       	subi	r22, 0xBB	; 187
    19d4:	7f 4f       	sbci	r23, 0xFF	; 255
    19d6:	89 81       	ldd	r24, Y+1	; 0x01
    19d8:	9a 81       	ldd	r25, Y+2	; 0x02
    19da:	88 0f       	add	r24, r24
    19dc:	99 1f       	adc	r25, r25
    19de:	86 0f       	add	r24, r22
    19e0:	97 1f       	adc	r25, r23
    19e2:	fc 01       	movw	r30, r24
    19e4:	80 81       	ld	r24, Z
    19e6:	91 81       	ldd	r25, Z+1	; 0x01
    19e8:	fc 01       	movw	r30, r24
    19ea:	82 81       	ldd	r24, Z+2	; 0x02
    19ec:	93 81       	ldd	r25, Z+3	; 0x03
    19ee:	a4 81       	ldd	r26, Z+4	; 0x04
    19f0:	b5 81       	ldd	r27, Z+5	; 0x05
    TimerOn();
    unsigned short i;
    
    while(1){
        for(i = 0; i < numTasks; ++i){
            if(tasks[i]->elapsedTime ==
    19f2:	28 17       	cp	r18, r24
    19f4:	39 07       	cpc	r19, r25
    19f6:	4a 07       	cpc	r20, r26
    19f8:	5b 07       	cpc	r21, r27
    19fa:	09 f0       	breq	.+2      	; 0x19fe <main+0x552>
    19fc:	40 c0       	rjmp	.+128    	; 0x1a7e <main+0x5d2>
               tasks[i]->period){
                   tasks[i]->state = 
    19fe:	9e 01       	movw	r18, r28
    1a00:	2b 5b       	subi	r18, 0xBB	; 187
    1a02:	3f 4f       	sbci	r19, 0xFF	; 255
    1a04:	89 81       	ldd	r24, Y+1	; 0x01
    1a06:	9a 81       	ldd	r25, Y+2	; 0x02
    1a08:	88 0f       	add	r24, r24
    1a0a:	99 1f       	adc	r25, r25
    1a0c:	82 0f       	add	r24, r18
    1a0e:	93 1f       	adc	r25, r19
    1a10:	fc 01       	movw	r30, r24
    1a12:	00 81       	ld	r16, Z
    1a14:	11 81       	ldd	r17, Z+1	; 0x01
                        tasks[i]->TickFct(tasks[i]->state);
    1a16:	9e 01       	movw	r18, r28
    1a18:	2b 5b       	subi	r18, 0xBB	; 187
    1a1a:	3f 4f       	sbci	r19, 0xFF	; 255
    1a1c:	89 81       	ldd	r24, Y+1	; 0x01
    1a1e:	9a 81       	ldd	r25, Y+2	; 0x02
    1a20:	88 0f       	add	r24, r24
    1a22:	99 1f       	adc	r25, r25
    1a24:	82 0f       	add	r24, r18
    1a26:	93 1f       	adc	r25, r19
    1a28:	fc 01       	movw	r30, r24
    1a2a:	80 81       	ld	r24, Z
    1a2c:	91 81       	ldd	r25, Z+1	; 0x01
    1a2e:	fc 01       	movw	r30, r24
    1a30:	22 85       	ldd	r18, Z+10	; 0x0a
    1a32:	33 85       	ldd	r19, Z+11	; 0x0b
    1a34:	ae 01       	movw	r20, r28
    1a36:	4b 5b       	subi	r20, 0xBB	; 187
    1a38:	5f 4f       	sbci	r21, 0xFF	; 255
    1a3a:	89 81       	ldd	r24, Y+1	; 0x01
    1a3c:	9a 81       	ldd	r25, Y+2	; 0x02
    1a3e:	88 0f       	add	r24, r24
    1a40:	99 1f       	adc	r25, r25
    1a42:	84 0f       	add	r24, r20
    1a44:	95 1f       	adc	r25, r21
    1a46:	fc 01       	movw	r30, r24
    1a48:	80 81       	ld	r24, Z
    1a4a:	91 81       	ldd	r25, Z+1	; 0x01
    1a4c:	fc 01       	movw	r30, r24
    1a4e:	80 81       	ld	r24, Z
    1a50:	91 81       	ldd	r25, Z+1	; 0x01
    1a52:	f9 01       	movw	r30, r18
    1a54:	09 95       	icall
    
    while(1){
        for(i = 0; i < numTasks; ++i){
            if(tasks[i]->elapsedTime ==
               tasks[i]->period){
                   tasks[i]->state = 
    1a56:	f8 01       	movw	r30, r16
    1a58:	91 83       	std	Z+1, r25	; 0x01
    1a5a:	80 83       	st	Z, r24
                        tasks[i]->TickFct(tasks[i]->state);
                   tasks[i]->elapsedTime = 0;
    1a5c:	9e 01       	movw	r18, r28
    1a5e:	2b 5b       	subi	r18, 0xBB	; 187
    1a60:	3f 4f       	sbci	r19, 0xFF	; 255
    1a62:	89 81       	ldd	r24, Y+1	; 0x01
    1a64:	9a 81       	ldd	r25, Y+2	; 0x02
    1a66:	88 0f       	add	r24, r24
    1a68:	99 1f       	adc	r25, r25
    1a6a:	82 0f       	add	r24, r18
    1a6c:	93 1f       	adc	r25, r19
    1a6e:	fc 01       	movw	r30, r24
    1a70:	80 81       	ld	r24, Z
    1a72:	91 81       	ldd	r25, Z+1	; 0x01
    1a74:	fc 01       	movw	r30, r24
    1a76:	16 82       	std	Z+6, r1	; 0x06
    1a78:	17 82       	std	Z+7, r1	; 0x07
    1a7a:	10 86       	std	Z+8, r1	; 0x08
    1a7c:	11 86       	std	Z+9, r1	; 0x09
              }
               tasks[i]->elapsedTime += 1;
    1a7e:	9e 01       	movw	r18, r28
    1a80:	2b 5b       	subi	r18, 0xBB	; 187
    1a82:	3f 4f       	sbci	r19, 0xFF	; 255
    1a84:	89 81       	ldd	r24, Y+1	; 0x01
    1a86:	9a 81       	ldd	r25, Y+2	; 0x02
    1a88:	88 0f       	add	r24, r24
    1a8a:	99 1f       	adc	r25, r25
    1a8c:	82 0f       	add	r24, r18
    1a8e:	93 1f       	adc	r25, r19
    1a90:	fc 01       	movw	r30, r24
    1a92:	20 81       	ld	r18, Z
    1a94:	31 81       	ldd	r19, Z+1	; 0x01
    1a96:	ae 01       	movw	r20, r28
    1a98:	4b 5b       	subi	r20, 0xBB	; 187
    1a9a:	5f 4f       	sbci	r21, 0xFF	; 255
    1a9c:	89 81       	ldd	r24, Y+1	; 0x01
    1a9e:	9a 81       	ldd	r25, Y+2	; 0x02
    1aa0:	88 0f       	add	r24, r24
    1aa2:	99 1f       	adc	r25, r25
    1aa4:	84 0f       	add	r24, r20
    1aa6:	95 1f       	adc	r25, r21
    1aa8:	fc 01       	movw	r30, r24
    1aaa:	80 81       	ld	r24, Z
    1aac:	91 81       	ldd	r25, Z+1	; 0x01
    1aae:	fc 01       	movw	r30, r24
    1ab0:	86 81       	ldd	r24, Z+6	; 0x06
    1ab2:	97 81       	ldd	r25, Z+7	; 0x07
    1ab4:	a0 85       	ldd	r26, Z+8	; 0x08
    1ab6:	b1 85       	ldd	r27, Z+9	; 0x09
    1ab8:	01 96       	adiw	r24, 0x01	; 1
    1aba:	a1 1d       	adc	r26, r1
    1abc:	b1 1d       	adc	r27, r1
    1abe:	f9 01       	movw	r30, r18
    1ac0:	86 83       	std	Z+6, r24	; 0x06
    1ac2:	97 83       	std	Z+7, r25	; 0x07
    1ac4:	a0 87       	std	Z+8, r26	; 0x08
    1ac6:	b1 87       	std	Z+9, r27	; 0x09
    LCD_init();
    TimerOn();
    unsigned short i;
    
    while(1){
        for(i = 0; i < numTasks; ++i){
    1ac8:	89 81       	ldd	r24, Y+1	; 0x01
    1aca:	9a 81       	ldd	r25, Y+2	; 0x02
    1acc:	01 96       	adiw	r24, 0x01	; 1
    1ace:	9a 83       	std	Y+2, r25	; 0x02
    1ad0:	89 83       	std	Y+1, r24	; 0x01
    1ad2:	ce 01       	movw	r24, r28
    1ad4:	8d 5b       	subi	r24, 0xBD	; 189
    1ad6:	9f 4f       	sbci	r25, 0xFF	; 255
    1ad8:	29 81       	ldd	r18, Y+1	; 0x01
    1ada:	3a 81       	ldd	r19, Y+2	; 0x02
    1adc:	fc 01       	movw	r30, r24
    1ade:	80 81       	ld	r24, Z
    1ae0:	91 81       	ldd	r25, Z+1	; 0x01
    1ae2:	28 17       	cp	r18, r24
    1ae4:	39 07       	cpc	r19, r25
    1ae6:	08 f4       	brcc	.+2      	; 0x1aea <main+0x63e>
    1ae8:	62 cf       	rjmp	.-316    	; 0x19ae <main+0x502>
                        tasks[i]->TickFct(tasks[i]->state);
                   tasks[i]->elapsedTime = 0;
              }
               tasks[i]->elapsedTime += 1;
        }
        while(!TimerFlag);
    1aea:	00 00       	nop
    1aec:	80 91 7c 01 	lds	r24, 0x017C
    1af0:	88 23       	and	r24, r24
    1af2:	e1 f3       	breq	.-8      	; 0x1aec <main+0x640>
        TimerFlag = 0;
    1af4:	10 92 7c 01 	sts	0x017C, r1
    }
    1af8:	57 cf       	rjmp	.-338    	; 0x19a8 <main+0x4fc>

00001afa <__divmodhi4>:
    1afa:	97 fb       	bst	r25, 7
    1afc:	07 2e       	mov	r0, r23
    1afe:	16 f4       	brtc	.+4      	; 0x1b04 <__divmodhi4+0xa>
    1b00:	00 94       	com	r0
    1b02:	06 d0       	rcall	.+12     	; 0x1b10 <__divmodhi4_neg1>
    1b04:	77 fd       	sbrc	r23, 7
    1b06:	08 d0       	rcall	.+16     	; 0x1b18 <__divmodhi4_neg2>
    1b08:	33 d0       	rcall	.+102    	; 0x1b70 <__udivmodhi4>
    1b0a:	07 fc       	sbrc	r0, 7
    1b0c:	05 d0       	rcall	.+10     	; 0x1b18 <__divmodhi4_neg2>
    1b0e:	3e f4       	brtc	.+14     	; 0x1b1e <__divmodhi4_exit>

00001b10 <__divmodhi4_neg1>:
    1b10:	90 95       	com	r25
    1b12:	81 95       	neg	r24
    1b14:	9f 4f       	sbci	r25, 0xFF	; 255
    1b16:	08 95       	ret

00001b18 <__divmodhi4_neg2>:
    1b18:	70 95       	com	r23
    1b1a:	61 95       	neg	r22
    1b1c:	7f 4f       	sbci	r23, 0xFF	; 255

00001b1e <__divmodhi4_exit>:
    1b1e:	08 95       	ret

00001b20 <__udivmodsi4>:
    1b20:	a1 e2       	ldi	r26, 0x21	; 33
    1b22:	1a 2e       	mov	r1, r26
    1b24:	aa 1b       	sub	r26, r26
    1b26:	bb 1b       	sub	r27, r27
    1b28:	fd 01       	movw	r30, r26
    1b2a:	0d c0       	rjmp	.+26     	; 0x1b46 <__udivmodsi4_ep>

00001b2c <__udivmodsi4_loop>:
    1b2c:	aa 1f       	adc	r26, r26
    1b2e:	bb 1f       	adc	r27, r27
    1b30:	ee 1f       	adc	r30, r30
    1b32:	ff 1f       	adc	r31, r31
    1b34:	a2 17       	cp	r26, r18
    1b36:	b3 07       	cpc	r27, r19
    1b38:	e4 07       	cpc	r30, r20
    1b3a:	f5 07       	cpc	r31, r21
    1b3c:	20 f0       	brcs	.+8      	; 0x1b46 <__udivmodsi4_ep>
    1b3e:	a2 1b       	sub	r26, r18
    1b40:	b3 0b       	sbc	r27, r19
    1b42:	e4 0b       	sbc	r30, r20
    1b44:	f5 0b       	sbc	r31, r21

00001b46 <__udivmodsi4_ep>:
    1b46:	66 1f       	adc	r22, r22
    1b48:	77 1f       	adc	r23, r23
    1b4a:	88 1f       	adc	r24, r24
    1b4c:	99 1f       	adc	r25, r25
    1b4e:	1a 94       	dec	r1
    1b50:	69 f7       	brne	.-38     	; 0x1b2c <__udivmodsi4_loop>
    1b52:	60 95       	com	r22
    1b54:	70 95       	com	r23
    1b56:	80 95       	com	r24
    1b58:	90 95       	com	r25
    1b5a:	9b 01       	movw	r18, r22
    1b5c:	ac 01       	movw	r20, r24
    1b5e:	bd 01       	movw	r22, r26
    1b60:	cf 01       	movw	r24, r30
    1b62:	08 95       	ret

00001b64 <__tablejump2__>:
    1b64:	ee 0f       	add	r30, r30
    1b66:	ff 1f       	adc	r31, r31

00001b68 <__tablejump__>:
    1b68:	05 90       	lpm	r0, Z+
    1b6a:	f4 91       	lpm	r31, Z
    1b6c:	e0 2d       	mov	r30, r0
    1b6e:	09 94       	ijmp

00001b70 <__udivmodhi4>:
    1b70:	aa 1b       	sub	r26, r26
    1b72:	bb 1b       	sub	r27, r27
    1b74:	51 e1       	ldi	r21, 0x11	; 17
    1b76:	07 c0       	rjmp	.+14     	; 0x1b86 <__udivmodhi4_ep>

00001b78 <__udivmodhi4_loop>:
    1b78:	aa 1f       	adc	r26, r26
    1b7a:	bb 1f       	adc	r27, r27
    1b7c:	a6 17       	cp	r26, r22
    1b7e:	b7 07       	cpc	r27, r23
    1b80:	10 f0       	brcs	.+4      	; 0x1b86 <__udivmodhi4_ep>
    1b82:	a6 1b       	sub	r26, r22
    1b84:	b7 0b       	sbc	r27, r23

00001b86 <__udivmodhi4_ep>:
    1b86:	88 1f       	adc	r24, r24
    1b88:	99 1f       	adc	r25, r25
    1b8a:	5a 95       	dec	r21
    1b8c:	a9 f7       	brne	.-22     	; 0x1b78 <__udivmodhi4_loop>
    1b8e:	80 95       	com	r24
    1b90:	90 95       	com	r25
    1b92:	bc 01       	movw	r22, r24
    1b94:	cd 01       	movw	r24, r26
    1b96:	08 95       	ret

00001b98 <__eerd_byte_m1284p>:
    1b98:	f9 99       	sbic	0x1f, 1	; 31
    1b9a:	fe cf       	rjmp	.-4      	; 0x1b98 <__eerd_byte_m1284p>
    1b9c:	92 bd       	out	0x22, r25	; 34
    1b9e:	81 bd       	out	0x21, r24	; 33
    1ba0:	f8 9a       	sbi	0x1f, 0	; 31
    1ba2:	99 27       	eor	r25, r25
    1ba4:	80 b5       	in	r24, 0x20	; 32
    1ba6:	08 95       	ret

00001ba8 <__eeupd_byte_m1284p>:
    1ba8:	26 2f       	mov	r18, r22

00001baa <__eeupd_r18_m1284p>:
    1baa:	f9 99       	sbic	0x1f, 1	; 31
    1bac:	fe cf       	rjmp	.-4      	; 0x1baa <__eeupd_r18_m1284p>
    1bae:	92 bd       	out	0x22, r25	; 34
    1bb0:	81 bd       	out	0x21, r24	; 33
    1bb2:	f8 9a       	sbi	0x1f, 0	; 31
    1bb4:	01 97       	sbiw	r24, 0x01	; 1
    1bb6:	00 b4       	in	r0, 0x20	; 32
    1bb8:	02 16       	cp	r0, r18
    1bba:	39 f0       	breq	.+14     	; 0x1bca <__eeupd_r18_m1284p+0x20>
    1bbc:	1f ba       	out	0x1f, r1	; 31
    1bbe:	20 bd       	out	0x20, r18	; 32
    1bc0:	0f b6       	in	r0, 0x3f	; 63
    1bc2:	f8 94       	cli
    1bc4:	fa 9a       	sbi	0x1f, 2	; 31
    1bc6:	f9 9a       	sbi	0x1f, 1	; 31
    1bc8:	0f be       	out	0x3f, r0	; 63
    1bca:	08 95       	ret

00001bcc <_exit>:
    1bcc:	f8 94       	cli

00001bce <__stop_program>:
    1bce:	ff cf       	rjmp	.-2      	; 0x1bce <__stop_program>
