
apola001_Final_Project.elf:     file format elf32-avr

Sections:
Idx Name          Size      VMA       LMA       File off  Algn
  0 .data         00000016  00800100  000011ec  00001280  2**0
                  CONTENTS, ALLOC, LOAD, DATA
  1 .text         000011ec  00000000  00000000  00000094  2**1
                  CONTENTS, ALLOC, LOAD, READONLY, CODE
  2 .bss          0000006c  00800116  00800116  00001296  2**0
                  ALLOC
  3 .comment      00000030  00000000  00000000  00001296  2**0
                  CONTENTS, READONLY
  4 .debug_aranges 000000e8  00000000  00000000  000012c6  2**0
                  CONTENTS, READONLY, DEBUGGING
  5 .debug_info   0000098d  00000000  00000000  000013ae  2**0
                  CONTENTS, READONLY, DEBUGGING
  6 .debug_abbrev 000001f9  00000000  00000000  00001d3b  2**0
                  CONTENTS, READONLY, DEBUGGING
  7 .debug_line   00000d01  00000000  00000000  00001f34  2**0
                  CONTENTS, READONLY, DEBUGGING
  8 .debug_frame  000003a4  00000000  00000000  00002c38  2**2
                  CONTENTS, READONLY, DEBUGGING
  9 .debug_str    00000601  00000000  00000000  00002fdc  2**0
                  CONTENTS, READONLY, DEBUGGING
 10 .debug_loc    000007c4  00000000  00000000  000035dd  2**0
                  CONTENTS, READONLY, DEBUGGING
 11 .debug_ranges 000000f0  00000000  00000000  00003da1  2**0
                  CONTENTS, READONLY, DEBUGGING

Disassembly of section .text:

00000000 <__vectors>:
       0:	45 c0       	rjmp	.+138    	; 0x8c <__ctors_end>
       2:	00 00       	nop
       4:	61 c0       	rjmp	.+194    	; 0xc8 <__bad_interrupt>
       6:	00 00       	nop
       8:	5f c0       	rjmp	.+190    	; 0xc8 <__bad_interrupt>
       a:	00 00       	nop
       c:	5d c0       	rjmp	.+186    	; 0xc8 <__bad_interrupt>
       e:	00 00       	nop
      10:	5b c0       	rjmp	.+182    	; 0xc8 <__bad_interrupt>
      12:	00 00       	nop
      14:	59 c0       	rjmp	.+178    	; 0xc8 <__bad_interrupt>
      16:	00 00       	nop
      18:	57 c0       	rjmp	.+174    	; 0xc8 <__bad_interrupt>
      1a:	00 00       	nop
      1c:	55 c0       	rjmp	.+170    	; 0xc8 <__bad_interrupt>
      1e:	00 00       	nop
      20:	53 c0       	rjmp	.+166    	; 0xc8 <__bad_interrupt>
      22:	00 00       	nop
      24:	51 c0       	rjmp	.+162    	; 0xc8 <__bad_interrupt>
      26:	00 00       	nop
      28:	4f c0       	rjmp	.+158    	; 0xc8 <__bad_interrupt>
      2a:	00 00       	nop
      2c:	4d c0       	rjmp	.+154    	; 0xc8 <__bad_interrupt>
      2e:	00 00       	nop
      30:	4b c0       	rjmp	.+150    	; 0xc8 <__bad_interrupt>
      32:	00 00       	nop
      34:	27 c1       	rjmp	.+590    	; 0x284 <__vector_13>
      36:	00 00       	nop
      38:	47 c0       	rjmp	.+142    	; 0xc8 <__bad_interrupt>
      3a:	00 00       	nop
      3c:	45 c0       	rjmp	.+138    	; 0xc8 <__bad_interrupt>
      3e:	00 00       	nop
      40:	43 c0       	rjmp	.+134    	; 0xc8 <__bad_interrupt>
      42:	00 00       	nop
      44:	41 c0       	rjmp	.+130    	; 0xc8 <__bad_interrupt>
      46:	00 00       	nop
      48:	3f c0       	rjmp	.+126    	; 0xc8 <__bad_interrupt>
      4a:	00 00       	nop
      4c:	3d c0       	rjmp	.+122    	; 0xc8 <__bad_interrupt>
      4e:	00 00       	nop
      50:	3b c0       	rjmp	.+118    	; 0xc8 <__bad_interrupt>
      52:	00 00       	nop
      54:	39 c0       	rjmp	.+114    	; 0xc8 <__bad_interrupt>
      56:	00 00       	nop
      58:	37 c0       	rjmp	.+110    	; 0xc8 <__bad_interrupt>
      5a:	00 00       	nop
      5c:	35 c0       	rjmp	.+106    	; 0xc8 <__bad_interrupt>
      5e:	00 00       	nop
      60:	33 c0       	rjmp	.+102    	; 0xc8 <__bad_interrupt>
      62:	00 00       	nop
      64:	31 c0       	rjmp	.+98     	; 0xc8 <__bad_interrupt>
      66:	00 00       	nop
      68:	2f c0       	rjmp	.+94     	; 0xc8 <__bad_interrupt>
      6a:	00 00       	nop
      6c:	2d c0       	rjmp	.+90     	; 0xc8 <__bad_interrupt>
      6e:	00 00       	nop
      70:	2b c0       	rjmp	.+86     	; 0xc8 <__bad_interrupt>
      72:	00 00       	nop
      74:	29 c0       	rjmp	.+82     	; 0xc8 <__bad_interrupt>
      76:	00 00       	nop
      78:	27 c0       	rjmp	.+78     	; 0xc8 <__bad_interrupt>
      7a:	00 00       	nop
      7c:	25 c0       	rjmp	.+74     	; 0xc8 <__bad_interrupt>
      7e:	00 00       	nop
      80:	23 c0       	rjmp	.+70     	; 0xc8 <__bad_interrupt>
      82:	00 00       	nop
      84:	21 c0       	rjmp	.+66     	; 0xc8 <__bad_interrupt>
      86:	00 00       	nop
      88:	1f c0       	rjmp	.+62     	; 0xc8 <__bad_interrupt>
	...

0000008c <__ctors_end>:
      8c:	11 24       	eor	r1, r1
      8e:	1f be       	out	0x3f, r1	; 63
      90:	cf ef       	ldi	r28, 0xFF	; 255
      92:	d0 e4       	ldi	r29, 0x40	; 64
      94:	de bf       	out	0x3e, r29	; 62
      96:	cd bf       	out	0x3d, r28	; 61

00000098 <__do_copy_data>:
      98:	11 e0       	ldi	r17, 0x01	; 1
      9a:	a0 e0       	ldi	r26, 0x00	; 0
      9c:	b1 e0       	ldi	r27, 0x01	; 1
      9e:	ec ee       	ldi	r30, 0xEC	; 236
      a0:	f1 e1       	ldi	r31, 0x11	; 17
      a2:	00 e0       	ldi	r16, 0x00	; 0
      a4:	0b bf       	out	0x3b, r16	; 59
      a6:	02 c0       	rjmp	.+4      	; 0xac <__do_copy_data+0x14>
      a8:	07 90       	elpm	r0, Z+
      aa:	0d 92       	st	X+, r0
      ac:	a6 31       	cpi	r26, 0x16	; 22
      ae:	b1 07       	cpc	r27, r17
      b0:	d9 f7       	brne	.-10     	; 0xa8 <__do_copy_data+0x10>

000000b2 <__do_clear_bss>:
      b2:	21 e0       	ldi	r18, 0x01	; 1
      b4:	a6 e1       	ldi	r26, 0x16	; 22
      b6:	b1 e0       	ldi	r27, 0x01	; 1
      b8:	01 c0       	rjmp	.+2      	; 0xbc <.do_clear_bss_start>

000000ba <.do_clear_bss_loop>:
      ba:	1d 92       	st	X+, r1

000000bc <.do_clear_bss_start>:
      bc:	a2 38       	cpi	r26, 0x82	; 130
      be:	b2 07       	cpc	r27, r18
      c0:	e1 f7       	brne	.-8      	; 0xba <.do_clear_bss_loop>
      c2:	4d d5       	rcall	.+2714   	; 0xb5e <main>
      c4:	0c 94 f4 08 	jmp	0x11e8	; 0x11e8 <_exit>

000000c8 <__bad_interrupt>:
      c8:	9b cf       	rjmp	.-202    	; 0x0 <__vectors>

000000ca <LCD_init>:
    SREG = 0x80;
}

void TimerOff(){
    TCCR1B = 0x00;
}
      ca:	cf 93       	push	r28
      cc:	df 93       	push	r29
      ce:	cd b7       	in	r28, 0x3d	; 61
      d0:	de b7       	in	r29, 0x3e	; 62
      d2:	84 e6       	ldi	r24, 0x64	; 100
      d4:	90 e0       	ldi	r25, 0x00	; 0
      d6:	6a d0       	rcall	.+212    	; 0x1ac <delay_ms>
      d8:	88 e3       	ldi	r24, 0x38	; 56
      da:	0c d0       	rcall	.+24     	; 0xf4 <LCD_WriteCommand>
      dc:	86 e0       	ldi	r24, 0x06	; 6
      de:	0a d0       	rcall	.+20     	; 0xf4 <LCD_WriteCommand>
      e0:	8f e0       	ldi	r24, 0x0F	; 15
      e2:	08 d0       	rcall	.+16     	; 0xf4 <LCD_WriteCommand>
      e4:	81 e0       	ldi	r24, 0x01	; 1
      e6:	06 d0       	rcall	.+12     	; 0xf4 <LCD_WriteCommand>
      e8:	8a e0       	ldi	r24, 0x0A	; 10
      ea:	90 e0       	ldi	r25, 0x00	; 0
      ec:	5f d0       	rcall	.+190    	; 0x1ac <delay_ms>
      ee:	df 91       	pop	r29
      f0:	cf 91       	pop	r28
      f2:	08 95       	ret

000000f4 <LCD_WriteCommand>:
      f4:	cf 93       	push	r28
      f6:	df 93       	push	r29
      f8:	1f 92       	push	r1
      fa:	cd b7       	in	r28, 0x3d	; 61
      fc:	de b7       	in	r29, 0x3e	; 62
      fe:	89 83       	std	Y+1, r24	; 0x01
     100:	82 e2       	ldi	r24, 0x22	; 34
     102:	90 e0       	ldi	r25, 0x00	; 0
     104:	22 e2       	ldi	r18, 0x22	; 34
     106:	30 e0       	ldi	r19, 0x00	; 0
     108:	f9 01       	movw	r30, r18
     10a:	20 81       	ld	r18, Z
     10c:	2e 7f       	andi	r18, 0xFE	; 254
     10e:	fc 01       	movw	r30, r24
     110:	20 83       	st	Z, r18
     112:	8b e2       	ldi	r24, 0x2B	; 43
     114:	90 e0       	ldi	r25, 0x00	; 0
     116:	29 81       	ldd	r18, Y+1	; 0x01
     118:	fc 01       	movw	r30, r24
     11a:	20 83       	st	Z, r18
     11c:	82 e2       	ldi	r24, 0x22	; 34
     11e:	90 e0       	ldi	r25, 0x00	; 0
     120:	22 e2       	ldi	r18, 0x22	; 34
     122:	30 e0       	ldi	r19, 0x00	; 0
     124:	f9 01       	movw	r30, r18
     126:	20 81       	ld	r18, Z
     128:	22 60       	ori	r18, 0x02	; 2
     12a:	fc 01       	movw	r30, r24
     12c:	20 83       	st	Z, r18
     12e:	00 00       	nop
     130:	82 e2       	ldi	r24, 0x22	; 34
     132:	90 e0       	ldi	r25, 0x00	; 0
     134:	22 e2       	ldi	r18, 0x22	; 34
     136:	30 e0       	ldi	r19, 0x00	; 0
     138:	f9 01       	movw	r30, r18
     13a:	20 81       	ld	r18, Z
     13c:	2d 7f       	andi	r18, 0xFD	; 253
     13e:	fc 01       	movw	r30, r24
     140:	20 83       	st	Z, r18
     142:	82 e0       	ldi	r24, 0x02	; 2
     144:	90 e0       	ldi	r25, 0x00	; 0
     146:	32 d0       	rcall	.+100    	; 0x1ac <delay_ms>
     148:	0f 90       	pop	r0
     14a:	df 91       	pop	r29
     14c:	cf 91       	pop	r28
     14e:	08 95       	ret

00000150 <LCD_WriteData>:
     150:	cf 93       	push	r28
     152:	df 93       	push	r29
     154:	1f 92       	push	r1
     156:	cd b7       	in	r28, 0x3d	; 61
     158:	de b7       	in	r29, 0x3e	; 62
     15a:	89 83       	std	Y+1, r24	; 0x01
     15c:	82 e2       	ldi	r24, 0x22	; 34
     15e:	90 e0       	ldi	r25, 0x00	; 0
     160:	22 e2       	ldi	r18, 0x22	; 34
     162:	30 e0       	ldi	r19, 0x00	; 0
     164:	f9 01       	movw	r30, r18
     166:	20 81       	ld	r18, Z
     168:	21 60       	ori	r18, 0x01	; 1
     16a:	fc 01       	movw	r30, r24
     16c:	20 83       	st	Z, r18
     16e:	8b e2       	ldi	r24, 0x2B	; 43
     170:	90 e0       	ldi	r25, 0x00	; 0
     172:	29 81       	ldd	r18, Y+1	; 0x01
     174:	fc 01       	movw	r30, r24
     176:	20 83       	st	Z, r18
     178:	82 e2       	ldi	r24, 0x22	; 34
     17a:	90 e0       	ldi	r25, 0x00	; 0
     17c:	22 e2       	ldi	r18, 0x22	; 34
     17e:	30 e0       	ldi	r19, 0x00	; 0
     180:	f9 01       	movw	r30, r18
     182:	20 81       	ld	r18, Z
     184:	22 60       	ori	r18, 0x02	; 2
     186:	fc 01       	movw	r30, r24
     188:	20 83       	st	Z, r18
     18a:	00 00       	nop
     18c:	82 e2       	ldi	r24, 0x22	; 34
     18e:	90 e0       	ldi	r25, 0x00	; 0
     190:	22 e2       	ldi	r18, 0x22	; 34
     192:	30 e0       	ldi	r19, 0x00	; 0
     194:	f9 01       	movw	r30, r18
     196:	20 81       	ld	r18, Z
     198:	2d 7f       	andi	r18, 0xFD	; 253
     19a:	fc 01       	movw	r30, r24
     19c:	20 83       	st	Z, r18
     19e:	81 e0       	ldi	r24, 0x01	; 1
     1a0:	90 e0       	ldi	r25, 0x00	; 0
     1a2:	04 d0       	rcall	.+8      	; 0x1ac <delay_ms>
     1a4:	0f 90       	pop	r0
     1a6:	df 91       	pop	r29
     1a8:	cf 91       	pop	r28
     1aa:	08 95       	ret

000001ac <delay_ms>:
     1ac:	cf 93       	push	r28
     1ae:	df 93       	push	r29
     1b0:	00 d0       	rcall	.+0      	; 0x1b2 <delay_ms+0x6>
     1b2:	00 d0       	rcall	.+0      	; 0x1b4 <delay_ms+0x8>
     1b4:	00 d0       	rcall	.+0      	; 0x1b6 <delay_ms+0xa>
     1b6:	cd b7       	in	r28, 0x3d	; 61
     1b8:	de b7       	in	r29, 0x3e	; 62
     1ba:	9e 83       	std	Y+6, r25	; 0x06
     1bc:	8d 83       	std	Y+5, r24	; 0x05
     1be:	1a 82       	std	Y+2, r1	; 0x02
     1c0:	19 82       	std	Y+1, r1	; 0x01
     1c2:	14 c0       	rjmp	.+40     	; 0x1ec <delay_ms+0x40>
     1c4:	1c 82       	std	Y+4, r1	; 0x04
     1c6:	1b 82       	std	Y+3, r1	; 0x03
     1c8:	06 c0       	rjmp	.+12     	; 0x1d6 <delay_ms+0x2a>
     1ca:	00 00       	nop
     1cc:	8b 81       	ldd	r24, Y+3	; 0x03
     1ce:	9c 81       	ldd	r25, Y+4	; 0x04
     1d0:	01 96       	adiw	r24, 0x01	; 1
     1d2:	9c 83       	std	Y+4, r25	; 0x04
     1d4:	8b 83       	std	Y+3, r24	; 0x03
     1d6:	8b 81       	ldd	r24, Y+3	; 0x03
     1d8:	9c 81       	ldd	r25, Y+4	; 0x04
     1da:	87 30       	cpi	r24, 0x07	; 7
     1dc:	23 e0       	ldi	r18, 0x03	; 3
     1de:	92 07       	cpc	r25, r18
     1e0:	a4 f3       	brlt	.-24     	; 0x1ca <delay_ms+0x1e>
     1e2:	89 81       	ldd	r24, Y+1	; 0x01
     1e4:	9a 81       	ldd	r25, Y+2	; 0x02
     1e6:	01 96       	adiw	r24, 0x01	; 1
     1e8:	9a 83       	std	Y+2, r25	; 0x02
     1ea:	89 83       	std	Y+1, r24	; 0x01
     1ec:	29 81       	ldd	r18, Y+1	; 0x01
     1ee:	3a 81       	ldd	r19, Y+2	; 0x02
     1f0:	8d 81       	ldd	r24, Y+5	; 0x05
     1f2:	9e 81       	ldd	r25, Y+6	; 0x06
     1f4:	28 17       	cp	r18, r24
     1f6:	39 07       	cpc	r19, r25
     1f8:	2c f3       	brlt	.-54     	; 0x1c4 <delay_ms+0x18>
     1fa:	26 96       	adiw	r28, 0x06	; 6
     1fc:	0f b6       	in	r0, 0x3f	; 63
     1fe:	f8 94       	cli
     200:	de bf       	out	0x3e, r29	; 62
     202:	0f be       	out	0x3f, r0	; 63
     204:	cd bf       	out	0x3d, r28	; 61
     206:	df 91       	pop	r29
     208:	cf 91       	pop	r28
     20a:	08 95       	ret

0000020c <TimerOn>:
     20c:	cf 93       	push	r28
     20e:	df 93       	push	r29
     210:	cd b7       	in	r28, 0x3d	; 61
     212:	de b7       	in	r29, 0x3e	; 62
     214:	81 e8       	ldi	r24, 0x81	; 129
     216:	90 e0       	ldi	r25, 0x00	; 0
     218:	2b e0       	ldi	r18, 0x0B	; 11
     21a:	fc 01       	movw	r30, r24
     21c:	20 83       	st	Z, r18
     21e:	88 e8       	ldi	r24, 0x88	; 136
     220:	90 e0       	ldi	r25, 0x00	; 0
     222:	2d e7       	ldi	r18, 0x7D	; 125
     224:	30 e0       	ldi	r19, 0x00	; 0
     226:	fc 01       	movw	r30, r24
     228:	31 83       	std	Z+1, r19	; 0x01
     22a:	20 83       	st	Z, r18
     22c:	8f e6       	ldi	r24, 0x6F	; 111
     22e:	90 e0       	ldi	r25, 0x00	; 0
     230:	22 e0       	ldi	r18, 0x02	; 2
     232:	fc 01       	movw	r30, r24
     234:	20 83       	st	Z, r18
     236:	84 e8       	ldi	r24, 0x84	; 132
     238:	90 e0       	ldi	r25, 0x00	; 0
     23a:	fc 01       	movw	r30, r24
     23c:	11 82       	std	Z+1, r1	; 0x01
     23e:	10 82       	st	Z, r1
     240:	80 91 00 01 	lds	r24, 0x0100
     244:	90 91 01 01 	lds	r25, 0x0101
     248:	a0 91 02 01 	lds	r26, 0x0102
     24c:	b0 91 03 01 	lds	r27, 0x0103
     250:	80 93 17 01 	sts	0x0117, r24
     254:	90 93 18 01 	sts	0x0118, r25
     258:	a0 93 19 01 	sts	0x0119, r26
     25c:	b0 93 1a 01 	sts	0x011A, r27
     260:	8f e5       	ldi	r24, 0x5F	; 95
     262:	90 e0       	ldi	r25, 0x00	; 0
     264:	20 e8       	ldi	r18, 0x80	; 128
     266:	fc 01       	movw	r30, r24
     268:	20 83       	st	Z, r18
     26a:	df 91       	pop	r29
     26c:	cf 91       	pop	r28
     26e:	08 95       	ret

00000270 <TimerISR>:

void TimerISR(){
     270:	cf 93       	push	r28
     272:	df 93       	push	r29
     274:	cd b7       	in	r28, 0x3d	; 61
     276:	de b7       	in	r29, 0x3e	; 62
    TimerFlag = 1;
     278:	81 e0       	ldi	r24, 0x01	; 1
     27a:	80 93 16 01 	sts	0x0116, r24
}
     27e:	df 91       	pop	r29
     280:	cf 91       	pop	r28
     282:	08 95       	ret

00000284 <__vector_13>:

ISR(TIMER1_COMPA_vect){
     284:	1f 92       	push	r1
     286:	0f 92       	push	r0
     288:	00 90 5f 00 	lds	r0, 0x005F
     28c:	0f 92       	push	r0
     28e:	11 24       	eor	r1, r1
     290:	00 90 5b 00 	lds	r0, 0x005B
     294:	0f 92       	push	r0
     296:	2f 93       	push	r18
     298:	3f 93       	push	r19
     29a:	4f 93       	push	r20
     29c:	5f 93       	push	r21
     29e:	6f 93       	push	r22
     2a0:	7f 93       	push	r23
     2a2:	8f 93       	push	r24
     2a4:	9f 93       	push	r25
     2a6:	af 93       	push	r26
     2a8:	bf 93       	push	r27
     2aa:	ef 93       	push	r30
     2ac:	ff 93       	push	r31
     2ae:	cf 93       	push	r28
     2b0:	df 93       	push	r29
     2b2:	cd b7       	in	r28, 0x3d	; 61
     2b4:	de b7       	in	r29, 0x3e	; 62
    _avr_timer_cntcurr--;
     2b6:	80 91 17 01 	lds	r24, 0x0117
     2ba:	90 91 18 01 	lds	r25, 0x0118
     2be:	a0 91 19 01 	lds	r26, 0x0119
     2c2:	b0 91 1a 01 	lds	r27, 0x011A
     2c6:	01 97       	sbiw	r24, 0x01	; 1
     2c8:	a1 09       	sbc	r26, r1
     2ca:	b1 09       	sbc	r27, r1
     2cc:	80 93 17 01 	sts	0x0117, r24
     2d0:	90 93 18 01 	sts	0x0118, r25
     2d4:	a0 93 19 01 	sts	0x0119, r26
     2d8:	b0 93 1a 01 	sts	0x011A, r27
    if(_avr_timer_cntcurr == 0){
     2dc:	80 91 17 01 	lds	r24, 0x0117
     2e0:	90 91 18 01 	lds	r25, 0x0118
     2e4:	a0 91 19 01 	lds	r26, 0x0119
     2e8:	b0 91 1a 01 	lds	r27, 0x011A
     2ec:	00 97       	sbiw	r24, 0x00	; 0
     2ee:	a1 05       	cpc	r26, r1
     2f0:	b1 05       	cpc	r27, r1
     2f2:	89 f4       	brne	.+34     	; 0x316 <__vector_13+0x92>
        TimerISR();
     2f4:	bd df       	rcall	.-134    	; 0x270 <TimerISR>
        _avr_timer_cntcurr = _avr_timer_M;
     2f6:	80 91 00 01 	lds	r24, 0x0100
     2fa:	90 91 01 01 	lds	r25, 0x0101
     2fe:	a0 91 02 01 	lds	r26, 0x0102
     302:	b0 91 03 01 	lds	r27, 0x0103
     306:	80 93 17 01 	sts	0x0117, r24
     30a:	90 93 18 01 	sts	0x0118, r25
     30e:	a0 93 19 01 	sts	0x0119, r26
     312:	b0 93 1a 01 	sts	0x011A, r27
    }
}
     316:	df 91       	pop	r29
     318:	cf 91       	pop	r28
     31a:	ff 91       	pop	r31
     31c:	ef 91       	pop	r30
     31e:	bf 91       	pop	r27
     320:	af 91       	pop	r26
     322:	9f 91       	pop	r25
     324:	8f 91       	pop	r24
     326:	7f 91       	pop	r23
     328:	6f 91       	pop	r22
     32a:	5f 91       	pop	r21
     32c:	4f 91       	pop	r20
     32e:	3f 91       	pop	r19
     330:	2f 91       	pop	r18
     332:	0f 90       	pop	r0
     334:	00 92 5b 00 	sts	0x005B, r0
     338:	0f 90       	pop	r0
     33a:	00 92 5f 00 	sts	0x005F, r0
     33e:	0f 90       	pop	r0
     340:	1f 90       	pop	r1
     342:	18 95       	reti

00000344 <TimerSet>:

void TimerSet(unsigned long M){
     344:	cf 93       	push	r28
     346:	df 93       	push	r29
     348:	00 d0       	rcall	.+0      	; 0x34a <TimerSet+0x6>
     34a:	00 d0       	rcall	.+0      	; 0x34c <TimerSet+0x8>
     34c:	cd b7       	in	r28, 0x3d	; 61
     34e:	de b7       	in	r29, 0x3e	; 62
     350:	69 83       	std	Y+1, r22	; 0x01
     352:	7a 83       	std	Y+2, r23	; 0x02
     354:	8b 83       	std	Y+3, r24	; 0x03
     356:	9c 83       	std	Y+4, r25	; 0x04
    _avr_timer_M = M;
     358:	89 81       	ldd	r24, Y+1	; 0x01
     35a:	9a 81       	ldd	r25, Y+2	; 0x02
     35c:	ab 81       	ldd	r26, Y+3	; 0x03
     35e:	bc 81       	ldd	r27, Y+4	; 0x04
     360:	80 93 00 01 	sts	0x0100, r24
     364:	90 93 01 01 	sts	0x0101, r25
     368:	a0 93 02 01 	sts	0x0102, r26
     36c:	b0 93 03 01 	sts	0x0103, r27
    _avr_timer_cntcurr = _avr_timer_M;
     370:	80 91 00 01 	lds	r24, 0x0100
     374:	90 91 01 01 	lds	r25, 0x0101
     378:	a0 91 02 01 	lds	r26, 0x0102
     37c:	b0 91 03 01 	lds	r27, 0x0103
     380:	80 93 17 01 	sts	0x0117, r24
     384:	90 93 18 01 	sts	0x0118, r25
     388:	a0 93 19 01 	sts	0x0119, r26
     38c:	b0 93 1a 01 	sts	0x011A, r27
     390:	0f 90       	pop	r0
     392:	0f 90       	pop	r0
     394:	0f 90       	pop	r0
     396:	0f 90       	pop	r0
     398:	df 91       	pop	r29
     39a:	cf 91       	pop	r28
     39c:	08 95       	ret

0000039e <findGCD>:
#include "/includes/timer.h"
#include <avr/io.h>

unsigned long int findGCD(unsigned long a,
                          unsigned long b)
{
     39e:	cf 93       	push	r28
     3a0:	df 93       	push	r29
     3a2:	cd b7       	in	r28, 0x3d	; 61
     3a4:	de b7       	in	r29, 0x3e	; 62
     3a6:	60 97       	sbiw	r28, 0x10	; 16
     3a8:	0f b6       	in	r0, 0x3f	; 63
     3aa:	f8 94       	cli
     3ac:	de bf       	out	0x3e, r29	; 62
     3ae:	0f be       	out	0x3f, r0	; 63
     3b0:	cd bf       	out	0x3d, r28	; 61
     3b2:	6d 83       	std	Y+5, r22	; 0x05
     3b4:	7e 83       	std	Y+6, r23	; 0x06
     3b6:	8f 83       	std	Y+7, r24	; 0x07
     3b8:	98 87       	std	Y+8, r25	; 0x08
     3ba:	29 87       	std	Y+9, r18	; 0x09
     3bc:	3a 87       	std	Y+10, r19	; 0x0a
     3be:	4b 87       	std	Y+11, r20	; 0x0b
     3c0:	5c 87       	std	Y+12, r21	; 0x0c
    unsigned long int c;
    while(1){
        c = a%b;
     3c2:	8d 81       	ldd	r24, Y+5	; 0x05
     3c4:	9e 81       	ldd	r25, Y+6	; 0x06
     3c6:	af 81       	ldd	r26, Y+7	; 0x07
     3c8:	b8 85       	ldd	r27, Y+8	; 0x08
     3ca:	29 85       	ldd	r18, Y+9	; 0x09
     3cc:	3a 85       	ldd	r19, Y+10	; 0x0a
     3ce:	4b 85       	ldd	r20, Y+11	; 0x0b
     3d0:	5c 85       	ldd	r21, Y+12	; 0x0c
     3d2:	bc 01       	movw	r22, r24
     3d4:	cd 01       	movw	r24, r26
     3d6:	e6 d6       	rcall	.+3532   	; 0x11a4 <__udivmodsi4>
     3d8:	dc 01       	movw	r26, r24
     3da:	cb 01       	movw	r24, r22
     3dc:	89 83       	std	Y+1, r24	; 0x01
     3de:	9a 83       	std	Y+2, r25	; 0x02
     3e0:	ab 83       	std	Y+3, r26	; 0x03
     3e2:	bc 83       	std	Y+4, r27	; 0x04
        if(c == 0){
     3e4:	89 81       	ldd	r24, Y+1	; 0x01
     3e6:	9a 81       	ldd	r25, Y+2	; 0x02
     3e8:	ab 81       	ldd	r26, Y+3	; 0x03
     3ea:	bc 81       	ldd	r27, Y+4	; 0x04
     3ec:	00 97       	sbiw	r24, 0x00	; 0
     3ee:	a1 05       	cpc	r26, r1
     3f0:	b1 05       	cpc	r27, r1
     3f2:	29 f4       	brne	.+10     	; 0x3fe <findGCD+0x60>
            return b;
     3f4:	89 85       	ldd	r24, Y+9	; 0x09
     3f6:	9a 85       	ldd	r25, Y+10	; 0x0a
     3f8:	ab 85       	ldd	r26, Y+11	; 0x0b
     3fa:	bc 85       	ldd	r27, Y+12	; 0x0c
     3fc:	11 c0       	rjmp	.+34     	; 0x420 <findGCD+0x82>
        }
        a = b;
     3fe:	89 85       	ldd	r24, Y+9	; 0x09
     400:	9a 85       	ldd	r25, Y+10	; 0x0a
     402:	ab 85       	ldd	r26, Y+11	; 0x0b
     404:	bc 85       	ldd	r27, Y+12	; 0x0c
     406:	8d 83       	std	Y+5, r24	; 0x05
     408:	9e 83       	std	Y+6, r25	; 0x06
     40a:	af 83       	std	Y+7, r26	; 0x07
     40c:	b8 87       	std	Y+8, r27	; 0x08
        b = c;
     40e:	89 81       	ldd	r24, Y+1	; 0x01
     410:	9a 81       	ldd	r25, Y+2	; 0x02
     412:	ab 81       	ldd	r26, Y+3	; 0x03
     414:	bc 81       	ldd	r27, Y+4	; 0x04
     416:	89 87       	std	Y+9, r24	; 0x09
     418:	9a 87       	std	Y+10, r25	; 0x0a
     41a:	ab 87       	std	Y+11, r26	; 0x0b
     41c:	bc 87       	std	Y+12, r27	; 0x0c
    }
     41e:	d1 cf       	rjmp	.-94     	; 0x3c2 <findGCD+0x24>
    return 0;
}
     420:	bc 01       	movw	r22, r24
     422:	cd 01       	movw	r24, r26
     424:	60 96       	adiw	r28, 0x10	; 16
     426:	0f b6       	in	r0, 0x3f	; 63
     428:	f8 94       	cli
     42a:	de bf       	out	0x3e, r29	; 62
     42c:	0f be       	out	0x3f, r0	; 63
     42e:	cd bf       	out	0x3d, r28	; 61
     430:	df 91       	pop	r29
     432:	cf 91       	pop	r28
     434:	08 95       	ret

00000436 <transmit_data_cols>:

void transmit_data_cols(unsigned char data) {
     436:	cf 93       	push	r28
     438:	df 93       	push	r29
     43a:	00 d0       	rcall	.+0      	; 0x43c <transmit_data_cols+0x6>
     43c:	1f 92       	push	r1
     43e:	cd b7       	in	r28, 0x3d	; 61
     440:	de b7       	in	r29, 0x3e	; 62
     442:	8b 83       	std	Y+3, r24	; 0x03
    int i;
    for (i = 0; i < 8 ; ++i) {
     444:	1a 82       	std	Y+2, r1	; 0x02
     446:	19 82       	std	Y+1, r1	; 0x01
     448:	27 c0       	rjmp	.+78     	; 0x498 <transmit_data_cols+0x62>
        // Sets SRCLR to 1 allowing data to be set
        // Also clears SRCLK in preparation of sending data
        PORTB = 0x08;
     44a:	85 e2       	ldi	r24, 0x25	; 37
     44c:	90 e0       	ldi	r25, 0x00	; 0
     44e:	28 e0       	ldi	r18, 0x08	; 8
     450:	fc 01       	movw	r30, r24
     452:	20 83       	st	Z, r18
        // set SER = next bit of data to be sent.
        PORTB |= ((data >> i) & 0x01);
     454:	85 e2       	ldi	r24, 0x25	; 37
     456:	90 e0       	ldi	r25, 0x00	; 0
     458:	25 e2       	ldi	r18, 0x25	; 37
     45a:	30 e0       	ldi	r19, 0x00	; 0
     45c:	f9 01       	movw	r30, r18
     45e:	20 81       	ld	r18, Z
     460:	42 2f       	mov	r20, r18
     462:	2b 81       	ldd	r18, Y+3	; 0x03
     464:	22 2f       	mov	r18, r18
     466:	30 e0       	ldi	r19, 0x00	; 0
     468:	09 80       	ldd	r0, Y+1	; 0x01
     46a:	02 c0       	rjmp	.+4      	; 0x470 <transmit_data_cols+0x3a>
     46c:	35 95       	asr	r19
     46e:	27 95       	ror	r18
     470:	0a 94       	dec	r0
     472:	e2 f7       	brpl	.-8      	; 0x46c <transmit_data_cols+0x36>
     474:	21 70       	andi	r18, 0x01	; 1
     476:	24 2b       	or	r18, r20
     478:	fc 01       	movw	r30, r24
     47a:	20 83       	st	Z, r18
        // set SRCLK = 1. Rising edge shifts next bit of data into the shift register
        PORTB |= 0x02;
     47c:	85 e2       	ldi	r24, 0x25	; 37
     47e:	90 e0       	ldi	r25, 0x00	; 0
     480:	25 e2       	ldi	r18, 0x25	; 37
     482:	30 e0       	ldi	r19, 0x00	; 0
     484:	f9 01       	movw	r30, r18
     486:	20 81       	ld	r18, Z
     488:	22 60       	ori	r18, 0x02	; 2
     48a:	fc 01       	movw	r30, r24
     48c:	20 83       	st	Z, r18
    return 0;
}

void transmit_data_cols(unsigned char data) {
    int i;
    for (i = 0; i < 8 ; ++i) {
     48e:	89 81       	ldd	r24, Y+1	; 0x01
     490:	9a 81       	ldd	r25, Y+2	; 0x02
     492:	01 96       	adiw	r24, 0x01	; 1
     494:	9a 83       	std	Y+2, r25	; 0x02
     496:	89 83       	std	Y+1, r24	; 0x01
     498:	89 81       	ldd	r24, Y+1	; 0x01
     49a:	9a 81       	ldd	r25, Y+2	; 0x02
     49c:	88 30       	cpi	r24, 0x08	; 8
     49e:	91 05       	cpc	r25, r1
     4a0:	a4 f2       	brlt	.-88     	; 0x44a <transmit_data_cols+0x14>
        PORTB |= ((data >> i) & 0x01);
        // set SRCLK = 1. Rising edge shifts next bit of data into the shift register
        PORTB |= 0x02;
    }
    // set RCLK = 1. Rising edge copies data from “Shift” register to “Storage” register
    PORTB |= 0x04;
     4a2:	85 e2       	ldi	r24, 0x25	; 37
     4a4:	90 e0       	ldi	r25, 0x00	; 0
     4a6:	25 e2       	ldi	r18, 0x25	; 37
     4a8:	30 e0       	ldi	r19, 0x00	; 0
     4aa:	f9 01       	movw	r30, r18
     4ac:	20 81       	ld	r18, Z
     4ae:	24 60       	ori	r18, 0x04	; 4
     4b0:	fc 01       	movw	r30, r24
     4b2:	20 83       	st	Z, r18
    // clears all lines in preparation of a new transmission
    PORTB = 0x00;
     4b4:	85 e2       	ldi	r24, 0x25	; 37
     4b6:	90 e0       	ldi	r25, 0x00	; 0
     4b8:	fc 01       	movw	r30, r24
     4ba:	10 82       	st	Z, r1
}
     4bc:	0f 90       	pop	r0
     4be:	0f 90       	pop	r0
     4c0:	0f 90       	pop	r0
     4c2:	df 91       	pop	r29
     4c4:	cf 91       	pop	r28
     4c6:	08 95       	ret

000004c8 <transmit_data_rows>:

void transmit_data_rows(unsigned char data) {
     4c8:	cf 93       	push	r28
     4ca:	df 93       	push	r29
     4cc:	00 d0       	rcall	.+0      	; 0x4ce <transmit_data_rows+0x6>
     4ce:	1f 92       	push	r1
     4d0:	cd b7       	in	r28, 0x3d	; 61
     4d2:	de b7       	in	r29, 0x3e	; 62
     4d4:	8b 83       	std	Y+3, r24	; 0x03
    int i;
    for (i = 0; i < 8 ; ++i) {
     4d6:	1a 82       	std	Y+2, r1	; 0x02
     4d8:	19 82       	std	Y+1, r1	; 0x01
     4da:	27 c0       	rjmp	.+78     	; 0x52a <transmit_data_rows+0x62>
        // Sets SRCLR to 1 allowing data to be set
        // Also clears SRCLK in preparation of sending data
        PORTC = 0x08;
     4dc:	88 e2       	ldi	r24, 0x28	; 40
     4de:	90 e0       	ldi	r25, 0x00	; 0
     4e0:	28 e0       	ldi	r18, 0x08	; 8
     4e2:	fc 01       	movw	r30, r24
     4e4:	20 83       	st	Z, r18
        // set SER = next bit of data to be sent.
        PORTC |= ((data >> i) & 0x01);
     4e6:	88 e2       	ldi	r24, 0x28	; 40
     4e8:	90 e0       	ldi	r25, 0x00	; 0
     4ea:	28 e2       	ldi	r18, 0x28	; 40
     4ec:	30 e0       	ldi	r19, 0x00	; 0
     4ee:	f9 01       	movw	r30, r18
     4f0:	20 81       	ld	r18, Z
     4f2:	42 2f       	mov	r20, r18
     4f4:	2b 81       	ldd	r18, Y+3	; 0x03
     4f6:	22 2f       	mov	r18, r18
     4f8:	30 e0       	ldi	r19, 0x00	; 0
     4fa:	09 80       	ldd	r0, Y+1	; 0x01
     4fc:	02 c0       	rjmp	.+4      	; 0x502 <transmit_data_rows+0x3a>
     4fe:	35 95       	asr	r19
     500:	27 95       	ror	r18
     502:	0a 94       	dec	r0
     504:	e2 f7       	brpl	.-8      	; 0x4fe <transmit_data_rows+0x36>
     506:	21 70       	andi	r18, 0x01	; 1
     508:	24 2b       	or	r18, r20
     50a:	fc 01       	movw	r30, r24
     50c:	20 83       	st	Z, r18
        // set SRCLK = 1. Rising edge shifts next bit of data into the shift register
        PORTC |= 0x02;
     50e:	88 e2       	ldi	r24, 0x28	; 40
     510:	90 e0       	ldi	r25, 0x00	; 0
     512:	28 e2       	ldi	r18, 0x28	; 40
     514:	30 e0       	ldi	r19, 0x00	; 0
     516:	f9 01       	movw	r30, r18
     518:	20 81       	ld	r18, Z
     51a:	22 60       	ori	r18, 0x02	; 2
     51c:	fc 01       	movw	r30, r24
     51e:	20 83       	st	Z, r18
    PORTB = 0x00;
}

void transmit_data_rows(unsigned char data) {
    int i;
    for (i = 0; i < 8 ; ++i) {
     520:	89 81       	ldd	r24, Y+1	; 0x01
     522:	9a 81       	ldd	r25, Y+2	; 0x02
     524:	01 96       	adiw	r24, 0x01	; 1
     526:	9a 83       	std	Y+2, r25	; 0x02
     528:	89 83       	std	Y+1, r24	; 0x01
     52a:	89 81       	ldd	r24, Y+1	; 0x01
     52c:	9a 81       	ldd	r25, Y+2	; 0x02
     52e:	88 30       	cpi	r24, 0x08	; 8
     530:	91 05       	cpc	r25, r1
     532:	a4 f2       	brlt	.-88     	; 0x4dc <transmit_data_rows+0x14>
        PORTC |= ((data >> i) & 0x01);
        // set SRCLK = 1. Rising edge shifts next bit of data into the shift register
        PORTC |= 0x02;
    }
    // set RCLK = 1. Rising edge copies data from “Shift” register to “Storage” register
    PORTC |= 0x04;
     534:	88 e2       	ldi	r24, 0x28	; 40
     536:	90 e0       	ldi	r25, 0x00	; 0
     538:	28 e2       	ldi	r18, 0x28	; 40
     53a:	30 e0       	ldi	r19, 0x00	; 0
     53c:	f9 01       	movw	r30, r18
     53e:	20 81       	ld	r18, Z
     540:	24 60       	ori	r18, 0x04	; 4
     542:	fc 01       	movw	r30, r24
     544:	20 83       	st	Z, r18
    // clears all lines in preparation of a new transmission
    PORTC = 0x00;
     546:	88 e2       	ldi	r24, 0x28	; 40
     548:	90 e0       	ldi	r25, 0x00	; 0
     54a:	fc 01       	movw	r30, r24
     54c:	10 82       	st	Z, r1
}
     54e:	0f 90       	pop	r0
     550:	0f 90       	pop	r0
     552:	0f 90       	pop	r0
     554:	df 91       	pop	r29
     556:	cf 91       	pop	r28
     558:	08 95       	ret

0000055a <SMTick1>:
unsigned char score = 0;
unsigned char to_display_g;

enum SM1_States { SM1_init, SM1_wait};

int SMTick1(int state){
     55a:	cf 93       	push	r28
     55c:	df 93       	push	r29
     55e:	00 d0       	rcall	.+0      	; 0x560 <SMTick1+0x6>
     560:	cd b7       	in	r28, 0x3d	; 61
     562:	de b7       	in	r29, 0x3e	; 62
     564:	9a 83       	std	Y+2, r25	; 0x02
     566:	89 83       	std	Y+1, r24	; 0x01
    switch(state){
     568:	89 81       	ldd	r24, Y+1	; 0x01
     56a:	9a 81       	ldd	r25, Y+2	; 0x02
     56c:	00 97       	sbiw	r24, 0x00	; 0
     56e:	21 f0       	breq	.+8      	; 0x578 <SMTick1+0x1e>
     570:	81 30       	cpi	r24, 0x01	; 1
     572:	91 05       	cpc	r25, r1
     574:	31 f0       	breq	.+12     	; 0x582 <SMTick1+0x28>
     576:	0a c0       	rjmp	.+20     	; 0x58c <SMTick1+0x32>
        case SM1_init:
            state = SM1_wait;
     578:	81 e0       	ldi	r24, 0x01	; 1
     57a:	90 e0       	ldi	r25, 0x00	; 0
     57c:	9a 83       	std	Y+2, r25	; 0x02
     57e:	89 83       	std	Y+1, r24	; 0x01
            break;
     580:	08 c0       	rjmp	.+16     	; 0x592 <SMTick1+0x38>
         case SM1_wait:
             state = SM1_wait;
     582:	81 e0       	ldi	r24, 0x01	; 1
     584:	90 e0       	ldi	r25, 0x00	; 0
     586:	9a 83       	std	Y+2, r25	; 0x02
     588:	89 83       	std	Y+1, r24	; 0x01
            break;
     58a:	03 c0       	rjmp	.+6      	; 0x592 <SMTick1+0x38>
        default:
            state = SM1_init;
     58c:	1a 82       	std	Y+2, r1	; 0x02
     58e:	19 82       	std	Y+1, r1	; 0x01
            break;
     590:	00 00       	nop
    }
    switch(state){
     592:	89 81       	ldd	r24, Y+1	; 0x01
     594:	9a 81       	ldd	r25, Y+2	; 0x02
     596:	00 97       	sbiw	r24, 0x00	; 0
     598:	21 f0       	breq	.+8      	; 0x5a2 <SMTick1+0x48>
     59a:	81 30       	cpi	r24, 0x01	; 1
     59c:	91 05       	cpc	r25, r1
     59e:	19 f0       	breq	.+6      	; 0x5a6 <SMTick1+0x4c>
            break;
        case SM1_wait:

            break;
        default:
             break;
     5a0:	03 c0       	rjmp	.+6      	; 0x5a8 <SMTick1+0x4e>
            state = SM1_init;
            break;
    }
    switch(state){
	        case SM1_init:
            break;
     5a2:	00 00       	nop
     5a4:	01 c0       	rjmp	.+2      	; 0x5a8 <SMTick1+0x4e>
        case SM1_wait:

            break;
     5a6:	00 00       	nop
        default:
             break;
    }
    return state;
     5a8:	89 81       	ldd	r24, Y+1	; 0x01
     5aa:	9a 81       	ldd	r25, Y+2	; 0x02
}
     5ac:	0f 90       	pop	r0
     5ae:	0f 90       	pop	r0
     5b0:	df 91       	pop	r29
     5b2:	cf 91       	pop	r28
     5b4:	08 95       	ret

000005b6 <SMTick2>:

enum SM2_States { SM2_init, SM2_display };

int SMTick2(int state){
     5b6:	cf 93       	push	r28
     5b8:	df 93       	push	r29
     5ba:	00 d0       	rcall	.+0      	; 0x5bc <SMTick2+0x6>
     5bc:	cd b7       	in	r28, 0x3d	; 61
     5be:	de b7       	in	r29, 0x3e	; 62
     5c0:	9a 83       	std	Y+2, r25	; 0x02
     5c2:	89 83       	std	Y+1, r24	; 0x01
    switch(state){
     5c4:	89 81       	ldd	r24, Y+1	; 0x01
     5c6:	9a 81       	ldd	r25, Y+2	; 0x02
     5c8:	00 97       	sbiw	r24, 0x00	; 0
     5ca:	49 f4       	brne	.+18     	; 0x5de <SMTick2+0x28>
        case SM2_init:
            state = SM2_display;
     5cc:	81 e0       	ldi	r24, 0x01	; 1
     5ce:	90 e0       	ldi	r25, 0x00	; 0
     5d0:	9a 83       	std	Y+2, r25	; 0x02
     5d2:	89 83       	std	Y+1, r24	; 0x01
            state = SM2_display;
     5d4:	81 e0       	ldi	r24, 0x01	; 1
     5d6:	90 e0       	ldi	r25, 0x00	; 0
     5d8:	9a 83       	std	Y+2, r25	; 0x02
     5da:	89 83       	std	Y+1, r24	; 0x01
            break;
     5dc:	03 c0       	rjmp	.+6      	; 0x5e4 <SMTick2+0x2e>
        default:
            state = SM2_init;
     5de:	1a 82       	std	Y+2, r1	; 0x02
     5e0:	19 82       	std	Y+1, r1	; 0x01
            break;
     5e2:	00 00       	nop
    }
    switch (state){
     5e4:	89 81       	ldd	r24, Y+1	; 0x01
     5e6:	9a 81       	ldd	r25, Y+2	; 0x02
     5e8:	00 97       	sbiw	r24, 0x00	; 0
     5ea:	99 f0       	breq	.+38     	; 0x612 <SMTick2+0x5c>
     5ec:	81 30       	cpi	r24, 0x01	; 1
     5ee:	91 05       	cpc	r25, r1
     5f0:	09 f0       	breq	.+2      	; 0x5f4 <SMTick2+0x3e>
            transmit_data_rows(row_g);
            transmit_data_cols(col_g);
 
            break;
        default:
            break;
     5f2:	10 c0       	rjmp	.+32     	; 0x614 <SMTick2+0x5e>
    }
    switch (state){
        case SM2_init:
            break;
        case SM2_display:
            row_g = 1;
     5f4:	81 e0       	ldi	r24, 0x01	; 1
     5f6:	80 93 05 01 	sts	0x0105, r24
            col_g = ~(player_pos_g);
     5fa:	80 91 06 01 	lds	r24, 0x0106
     5fe:	80 95       	com	r24
     600:	80 93 04 01 	sts	0x0104, r24
            transmit_data_rows(row_g);
     604:	80 91 05 01 	lds	r24, 0x0105
     608:	5f df       	rcall	.-322    	; 0x4c8 <transmit_data_rows>
            transmit_data_cols(col_g);
     60a:	80 91 04 01 	lds	r24, 0x0104
     60e:	13 df       	rcall	.-474    	; 0x436 <transmit_data_cols>
 
            break;
     610:	01 c0       	rjmp	.+2      	; 0x614 <SMTick2+0x5e>
            state = SM2_init;
            break;
    }
    switch (state){
        case SM2_init:
            break;
     612:	00 00       	nop
 
            break;
        default:
            break;
    }
    return state;
     614:	89 81       	ldd	r24, Y+1	; 0x01
     616:	9a 81       	ldd	r25, Y+2	; 0x02
}
     618:	0f 90       	pop	r0
     61a:	0f 90       	pop	r0
     61c:	df 91       	pop	r29
     61e:	cf 91       	pop	r28
     620:	08 95       	ret

00000622 <SMTick3>:

enum SM3_States{SM3_init, SM3_no_press, SM3_left, SM3_right};

int SMTick3(int state){
     622:	cf 93       	push	r28
     624:	df 93       	push	r29
     626:	00 d0       	rcall	.+0      	; 0x628 <SMTick3+0x6>
     628:	cd b7       	in	r28, 0x3d	; 61
     62a:	de b7       	in	r29, 0x3e	; 62
     62c:	9a 83       	std	Y+2, r25	; 0x02
     62e:	89 83       	std	Y+1, r24	; 0x01
    switch(state){
     630:	89 81       	ldd	r24, Y+1	; 0x01
     632:	9a 81       	ldd	r25, Y+2	; 0x02
     634:	81 30       	cpi	r24, 0x01	; 1
     636:	91 05       	cpc	r25, r1
     638:	91 f0       	breq	.+36     	; 0x65e <SMTick3+0x3c>
     63a:	82 30       	cpi	r24, 0x02	; 2
     63c:	91 05       	cpc	r25, r1
     63e:	1c f4       	brge	.+6      	; 0x646 <SMTick3+0x24>
     640:	00 97       	sbiw	r24, 0x00	; 0
     642:	41 f0       	breq	.+16     	; 0x654 <SMTick3+0x32>
     644:	4d c0       	rjmp	.+154    	; 0x6e0 <SMTick3+0xbe>
     646:	82 30       	cpi	r24, 0x02	; 2
     648:	91 05       	cpc	r25, r1
     64a:	71 f1       	breq	.+92     	; 0x6a8 <SMTick3+0x86>
     64c:	83 30       	cpi	r24, 0x03	; 3
     64e:	91 05       	cpc	r25, r1
     650:	c9 f1       	breq	.+114    	; 0x6c4 <SMTick3+0xa2>
     652:	46 c0       	rjmp	.+140    	; 0x6e0 <SMTick3+0xbe>
        case SM3_init:
            state = SM3_no_press;
     654:	81 e0       	ldi	r24, 0x01	; 1
     656:	90 e0       	ldi	r25, 0x00	; 0
     658:	9a 83       	std	Y+2, r25	; 0x02
     65a:	89 83       	std	Y+1, r24	; 0x01
            break;
     65c:	44 c0       	rjmp	.+136    	; 0x6e6 <SMTick3+0xc4>
        case SM3_no_press:
            if(left_button_g){
     65e:	80 91 1e 01 	lds	r24, 0x011E
     662:	88 23       	and	r24, r24
     664:	71 f0       	breq	.+28     	; 0x682 <SMTick3+0x60>
                state = SM3_left;
     666:	82 e0       	ldi	r24, 0x02	; 2
     668:	90 e0       	ldi	r25, 0x00	; 0
     66a:	9a 83       	std	Y+2, r25	; 0x02
     66c:	89 83       	std	Y+1, r24	; 0x01
                if(player_pos_g < 128){
     66e:	80 91 06 01 	lds	r24, 0x0106
     672:	88 23       	and	r24, r24
     674:	c4 f0       	brlt	.+48     	; 0x6a6 <SMTick3+0x84>
                    player_pos_g = player_pos_g << 1;
     676:	80 91 06 01 	lds	r24, 0x0106
     67a:	88 0f       	add	r24, r24
     67c:	80 93 06 01 	sts	0x0106, r24
                state = SM3_right;
                if(player_pos_g > 1){
                    player_pos_g = player_pos_g >> 1;
                }
            }
            break;
     680:	32 c0       	rjmp	.+100    	; 0x6e6 <SMTick3+0xc4>
                state = SM3_left;
                if(player_pos_g < 128){
                    player_pos_g = player_pos_g << 1;
                }
            }
            else if(right_button_g){
     682:	80 91 1f 01 	lds	r24, 0x011F
     686:	88 23       	and	r24, r24
     688:	71 f0       	breq	.+28     	; 0x6a6 <SMTick3+0x84>
                state = SM3_right;
     68a:	83 e0       	ldi	r24, 0x03	; 3
     68c:	90 e0       	ldi	r25, 0x00	; 0
     68e:	9a 83       	std	Y+2, r25	; 0x02
     690:	89 83       	std	Y+1, r24	; 0x01
                if(player_pos_g > 1){
     692:	80 91 06 01 	lds	r24, 0x0106
     696:	82 30       	cpi	r24, 0x02	; 2
     698:	30 f0       	brcs	.+12     	; 0x6a6 <SMTick3+0x84>
                    player_pos_g = player_pos_g >> 1;
     69a:	80 91 06 01 	lds	r24, 0x0106
     69e:	86 95       	lsr	r24
     6a0:	80 93 06 01 	sts	0x0106, r24
                }
            }
            break;
     6a4:	20 c0       	rjmp	.+64     	; 0x6e6 <SMTick3+0xc4>
     6a6:	1f c0       	rjmp	.+62     	; 0x6e6 <SMTick3+0xc4>
        case SM3_left:
            if(!left_button_g && !right_button_g){
     6a8:	80 91 1e 01 	lds	r24, 0x011E
     6ac:	88 23       	and	r24, r24
     6ae:	49 f4       	brne	.+18     	; 0x6c2 <SMTick3+0xa0>
     6b0:	80 91 1f 01 	lds	r24, 0x011F
     6b4:	88 23       	and	r24, r24
     6b6:	29 f4       	brne	.+10     	; 0x6c2 <SMTick3+0xa0>
                state = SM3_no_press;
     6b8:	81 e0       	ldi	r24, 0x01	; 1
     6ba:	90 e0       	ldi	r25, 0x00	; 0
     6bc:	9a 83       	std	Y+2, r25	; 0x02
     6be:	89 83       	std	Y+1, r24	; 0x01
            }
            break;
     6c0:	12 c0       	rjmp	.+36     	; 0x6e6 <SMTick3+0xc4>
     6c2:	11 c0       	rjmp	.+34     	; 0x6e6 <SMTick3+0xc4>
        case SM3_right:
            if(!left_button_g && !right_button_g){
     6c4:	80 91 1e 01 	lds	r24, 0x011E
     6c8:	88 23       	and	r24, r24
     6ca:	49 f4       	brne	.+18     	; 0x6de <SMTick3+0xbc>
     6cc:	80 91 1f 01 	lds	r24, 0x011F
     6d0:	88 23       	and	r24, r24
     6d2:	29 f4       	brne	.+10     	; 0x6de <SMTick3+0xbc>
                state = SM3_no_press;
     6d4:	81 e0       	ldi	r24, 0x01	; 1
     6d6:	90 e0       	ldi	r25, 0x00	; 0
     6d8:	9a 83       	std	Y+2, r25	; 0x02
     6da:	89 83       	std	Y+1, r24	; 0x01
            }
            break;
     6dc:	04 c0       	rjmp	.+8      	; 0x6e6 <SMTick3+0xc4>
     6de:	03 c0       	rjmp	.+6      	; 0x6e6 <SMTick3+0xc4>
        default:
            state = SM3_init;
     6e0:	1a 82       	std	Y+2, r1	; 0x02
     6e2:	19 82       	std	Y+1, r1	; 0x01
            break;
     6e4:	00 00       	nop
    }// End state transtions.
    
    switch(state){ //Begin State actions, in this case empty.
     6e6:	89 81       	ldd	r24, Y+1	; 0x01
     6e8:	9a 81       	ldd	r25, Y+2	; 0x02
     6ea:	81 30       	cpi	r24, 0x01	; 1
     6ec:	91 05       	cpc	r25, r1
     6ee:	69 f0       	breq	.+26     	; 0x70a <SMTick3+0xe8>
     6f0:	82 30       	cpi	r24, 0x02	; 2
     6f2:	91 05       	cpc	r25, r1
     6f4:	1c f4       	brge	.+6      	; 0x6fc <SMTick3+0xda>
     6f6:	00 97       	sbiw	r24, 0x00	; 0
     6f8:	51 f0       	breq	.+20     	; 0x70e <SMTick3+0xec>
        case SM3_left:
            break;
        case SM3_right:
            break;
        default:
            break;
     6fa:	0e c0       	rjmp	.+28     	; 0x718 <SMTick3+0xf6>
        default:
            state = SM3_init;
            break;
    }// End state transtions.
    
    switch(state){ //Begin State actions, in this case empty.
     6fc:	82 30       	cpi	r24, 0x02	; 2
     6fe:	91 05       	cpc	r25, r1
     700:	41 f0       	breq	.+16     	; 0x712 <SMTick3+0xf0>
     702:	83 30       	cpi	r24, 0x03	; 3
     704:	91 05       	cpc	r25, r1
     706:	39 f0       	breq	.+14     	; 0x716 <SMTick3+0xf4>
        case SM3_left:
            break;
        case SM3_right:
            break;
        default:
            break;
     708:	07 c0       	rjmp	.+14     	; 0x718 <SMTick3+0xf6>
    
    switch(state){ //Begin State actions, in this case empty.
        case SM3_init:
            break;
        case SM3_no_press:
            break;
     70a:	00 00       	nop
     70c:	05 c0       	rjmp	.+10     	; 0x718 <SMTick3+0xf6>
            break;
    }// End state transtions.
    
    switch(state){ //Begin State actions, in this case empty.
        case SM3_init:
            break;
     70e:	00 00       	nop
     710:	03 c0       	rjmp	.+6      	; 0x718 <SMTick3+0xf6>
        case SM3_no_press:
            break;
        case SM3_left:
            break;
     712:	00 00       	nop
     714:	01 c0       	rjmp	.+2      	; 0x718 <SMTick3+0xf6>
        case SM3_right:
            break;
     716:	00 00       	nop
        default:
            break;
    } // End state actions.
    return state;
     718:	89 81       	ldd	r24, Y+1	; 0x01
     71a:	9a 81       	ldd	r25, Y+2	; 0x02
}
     71c:	0f 90       	pop	r0
     71e:	0f 90       	pop	r0
     720:	df 91       	pop	r29
     722:	cf 91       	pop	r28
     724:	08 95       	ret

00000726 <SMTick4>:

enum SM4_States {SM4_init, SM4_get_inputs};

int SMTick4(int state){
     726:	cf 93       	push	r28
     728:	df 93       	push	r29
     72a:	00 d0       	rcall	.+0      	; 0x72c <SMTick4+0x6>
     72c:	cd b7       	in	r28, 0x3d	; 61
     72e:	de b7       	in	r29, 0x3e	; 62
     730:	9a 83       	std	Y+2, r25	; 0x02
     732:	89 83       	std	Y+1, r24	; 0x01
    switch(state){ //Begin state transitions for SM4, grabbing inputs.
     734:	89 81       	ldd	r24, Y+1	; 0x01
     736:	9a 81       	ldd	r25, Y+2	; 0x02
     738:	00 97       	sbiw	r24, 0x00	; 0
     73a:	21 f0       	breq	.+8      	; 0x744 <SMTick4+0x1e>
     73c:	81 30       	cpi	r24, 0x01	; 1
     73e:	91 05       	cpc	r25, r1
     740:	31 f0       	breq	.+12     	; 0x74e <SMTick4+0x28>
     742:	0a c0       	rjmp	.+20     	; 0x758 <SMTick4+0x32>
        case SM4_init:
            state = SM4_get_inputs;
     744:	81 e0       	ldi	r24, 0x01	; 1
     746:	90 e0       	ldi	r25, 0x00	; 0
     748:	9a 83       	std	Y+2, r25	; 0x02
     74a:	89 83       	std	Y+1, r24	; 0x01
            break;
     74c:	08 c0       	rjmp	.+16     	; 0x75e <SMTick4+0x38>
        case SM4_get_inputs:
            state = SM4_get_inputs;
     74e:	81 e0       	ldi	r24, 0x01	; 1
     750:	90 e0       	ldi	r25, 0x00	; 0
     752:	9a 83       	std	Y+2, r25	; 0x02
     754:	89 83       	std	Y+1, r24	; 0x01
            break;
     756:	03 c0       	rjmp	.+6      	; 0x75e <SMTick4+0x38>
        default:
            state = SM4_init;
     758:	1a 82       	std	Y+2, r1	; 0x02
     75a:	19 82       	std	Y+1, r1	; 0x01
            break;
     75c:	00 00       	nop
    } //End state transtions.
    
    switch(state){ //Begin state actions.
     75e:	89 81       	ldd	r24, Y+1	; 0x01
     760:	9a 81       	ldd	r25, Y+2	; 0x02
     762:	00 97       	sbiw	r24, 0x00	; 0
     764:	a9 f1       	breq	.+106    	; 0x7d0 <SMTick4+0xaa>
     766:	81 30       	cpi	r24, 0x01	; 1
     768:	91 05       	cpc	r25, r1
     76a:	09 f0       	breq	.+2      	; 0x76e <SMTick4+0x48>
            left_button_g = ~PINA & 0x20;
            right_button_g = ~PINA & 0x40;
            shoot_button_g = ~PINA & 0x80;
            break;
        default:
            break;
     76c:	32 c0       	rjmp	.+100    	; 0x7d2 <SMTick4+0xac>
    
    switch(state){ //Begin state actions.
        case SM4_init:
            break;
        case SM4_get_inputs:
            off_button_g = ~PINA & 0x04;
     76e:	80 e2       	ldi	r24, 0x20	; 32
     770:	90 e0       	ldi	r25, 0x00	; 0
     772:	fc 01       	movw	r30, r24
     774:	80 81       	ld	r24, Z
     776:	80 95       	com	r24
     778:	84 70       	andi	r24, 0x04	; 4
     77a:	80 93 1b 01 	sts	0x011B, r24
            start_button_g = ~PINA & 0x08;
     77e:	80 e2       	ldi	r24, 0x20	; 32
     780:	90 e0       	ldi	r25, 0x00	; 0
     782:	fc 01       	movw	r30, r24
     784:	80 81       	ld	r24, Z
     786:	80 95       	com	r24
     788:	88 70       	andi	r24, 0x08	; 8
     78a:	80 93 1c 01 	sts	0x011C, r24
            pause_button_g = ~PINA & 0x10;
     78e:	80 e2       	ldi	r24, 0x20	; 32
     790:	90 e0       	ldi	r25, 0x00	; 0
     792:	fc 01       	movw	r30, r24
     794:	80 81       	ld	r24, Z
     796:	80 95       	com	r24
     798:	80 71       	andi	r24, 0x10	; 16
     79a:	80 93 1d 01 	sts	0x011D, r24
            left_button_g = ~PINA & 0x20;
     79e:	80 e2       	ldi	r24, 0x20	; 32
     7a0:	90 e0       	ldi	r25, 0x00	; 0
     7a2:	fc 01       	movw	r30, r24
     7a4:	80 81       	ld	r24, Z
     7a6:	80 95       	com	r24
     7a8:	80 72       	andi	r24, 0x20	; 32
     7aa:	80 93 1e 01 	sts	0x011E, r24
            right_button_g = ~PINA & 0x40;
     7ae:	80 e2       	ldi	r24, 0x20	; 32
     7b0:	90 e0       	ldi	r25, 0x00	; 0
     7b2:	fc 01       	movw	r30, r24
     7b4:	80 81       	ld	r24, Z
     7b6:	80 95       	com	r24
     7b8:	80 74       	andi	r24, 0x40	; 64
     7ba:	80 93 1f 01 	sts	0x011F, r24
            shoot_button_g = ~PINA & 0x80;
     7be:	80 e2       	ldi	r24, 0x20	; 32
     7c0:	90 e0       	ldi	r25, 0x00	; 0
     7c2:	fc 01       	movw	r30, r24
     7c4:	80 81       	ld	r24, Z
     7c6:	80 95       	com	r24
     7c8:	80 78       	andi	r24, 0x80	; 128
     7ca:	80 93 22 01 	sts	0x0122, r24
            break;
     7ce:	01 c0       	rjmp	.+2      	; 0x7d2 <SMTick4+0xac>
            break;
    } //End state transtions.
    
    switch(state){ //Begin state actions.
        case SM4_init:
            break;
     7d0:	00 00       	nop
            shoot_button_g = ~PINA & 0x80;
            break;
        default:
            break;
    } // End state actions
    return state;
     7d2:	89 81       	ldd	r24, Y+1	; 0x01
     7d4:	9a 81       	ldd	r25, Y+2	; 0x02
}
     7d6:	0f 90       	pop	r0
     7d8:	0f 90       	pop	r0
     7da:	df 91       	pop	r29
     7dc:	cf 91       	pop	r28
     7de:	08 95       	ret

000007e0 <SMTick5>:

//Updates the bullets movement.
enum SM5_States{SM5_init, SM5_track_shot};

int SMTick5(int state){
     7e0:	cf 93       	push	r28
     7e2:	df 93       	push	r29
     7e4:	00 d0       	rcall	.+0      	; 0x7e6 <SMTick5+0x6>
     7e6:	cd b7       	in	r28, 0x3d	; 61
     7e8:	de b7       	in	r29, 0x3e	; 62
     7ea:	9a 83       	std	Y+2, r25	; 0x02
     7ec:	89 83       	std	Y+1, r24	; 0x01
    switch(state){
     7ee:	89 81       	ldd	r24, Y+1	; 0x01
     7f0:	9a 81       	ldd	r25, Y+2	; 0x02
     7f2:	00 97       	sbiw	r24, 0x00	; 0
     7f4:	21 f0       	breq	.+8      	; 0x7fe <SMTick5+0x1e>
     7f6:	81 30       	cpi	r24, 0x01	; 1
     7f8:	91 05       	cpc	r25, r1
     7fa:	31 f0       	breq	.+12     	; 0x808 <SMTick5+0x28>
     7fc:	0a c0       	rjmp	.+20     	; 0x812 <SMTick5+0x32>
        case SM5_init:
            state = SM5_track_shot;
     7fe:	81 e0       	ldi	r24, 0x01	; 1
     800:	90 e0       	ldi	r25, 0x00	; 0
     802:	9a 83       	std	Y+2, r25	; 0x02
     804:	89 83       	std	Y+1, r24	; 0x01
            break;
     806:	08 c0       	rjmp	.+16     	; 0x818 <SMTick5+0x38>
        case SM5_track_shot:
            state = SM5_track_shot;
     808:	81 e0       	ldi	r24, 0x01	; 1
     80a:	90 e0       	ldi	r25, 0x00	; 0
     80c:	9a 83       	std	Y+2, r25	; 0x02
     80e:	89 83       	std	Y+1, r24	; 0x01
            break;
     810:	03 c0       	rjmp	.+6      	; 0x818 <SMTick5+0x38>
        default:
            state = SM5_init;
     812:	1a 82       	std	Y+2, r1	; 0x02
     814:	19 82       	std	Y+1, r1	; 0x01
            break;
     816:	00 00       	nop
    }
    switch(state){
     818:	89 81       	ldd	r24, Y+1	; 0x01
     81a:	9a 81       	ldd	r25, Y+2	; 0x02
     81c:	00 97       	sbiw	r24, 0x00	; 0
     81e:	a9 f1       	breq	.+106    	; 0x88a <SMTick5+0xaa>
     820:	81 30       	cpi	r24, 0x01	; 1
     822:	91 05       	cpc	r25, r1
     824:	09 f0       	breq	.+2      	; 0x828 <SMTick5+0x48>
            }
            transmit_data_cols(~bullet_x_g);
            transmit_data_rows(bullet_y_g);
            break;
        default:
            break;
     826:	32 c0       	rjmp	.+100    	; 0x88c <SMTick5+0xac>
    }
    switch(state){
        case SM5_init:
            break;
        case SM5_track_shot: ;
            if(!bullet_live && shoot_button_g){ //If there is no bu
     828:	80 91 23 01 	lds	r24, 0x0123
     82c:	88 23       	and	r24, r24
     82e:	71 f4       	brne	.+28     	; 0x84c <SMTick5+0x6c>
     830:	80 91 22 01 	lds	r24, 0x0122
     834:	88 23       	and	r24, r24
     836:	51 f0       	breq	.+20     	; 0x84c <SMTick5+0x6c>
                bullet_live = 1;
     838:	81 e0       	ldi	r24, 0x01	; 1
     83a:	80 93 23 01 	sts	0x0123, r24
                bullet_x_g = player_pos_g;
     83e:	80 91 06 01 	lds	r24, 0x0106
     842:	80 93 20 01 	sts	0x0120, r24
                bullet_y_g = 1;
     846:	81 e0       	ldi	r24, 0x01	; 1
     848:	80 93 21 01 	sts	0x0121, r24
            }
            if(bullet_x_g && bullet_y_g){ // If the bullet has a valid position.
     84c:	80 91 20 01 	lds	r24, 0x0120
     850:	88 23       	and	r24, r24
     852:	49 f0       	breq	.+18     	; 0x866 <SMTick5+0x86>
     854:	80 91 21 01 	lds	r24, 0x0121
     858:	88 23       	and	r24, r24
     85a:	29 f0       	breq	.+10     	; 0x866 <SMTick5+0x86>
                bullet_y_g = bullet_y_g << 1;
     85c:	80 91 21 01 	lds	r24, 0x0121
     860:	88 0f       	add	r24, r24
     862:	80 93 21 01 	sts	0x0121, r24
            }
            if(bullet_y_g == 0){
     866:	80 91 21 01 	lds	r24, 0x0121
     86a:	88 23       	and	r24, r24
     86c:	31 f4       	brne	.+12     	; 0x87a <SMTick5+0x9a>
                bullet_x_g = 0;
     86e:	10 92 20 01 	sts	0x0120, r1
                bullet_y_g = 0;
     872:	10 92 21 01 	sts	0x0121, r1
                bullet_live = 0;
     876:	10 92 23 01 	sts	0x0123, r1
            }
            transmit_data_cols(~bullet_x_g);
     87a:	80 91 20 01 	lds	r24, 0x0120
     87e:	80 95       	com	r24
     880:	da dd       	rcall	.-1100   	; 0x436 <transmit_data_cols>
            transmit_data_rows(bullet_y_g);
     882:	80 91 21 01 	lds	r24, 0x0121
     886:	20 de       	rcall	.-960    	; 0x4c8 <transmit_data_rows>
            break;
     888:	01 c0       	rjmp	.+2      	; 0x88c <SMTick5+0xac>
            state = SM5_init;
            break;
    }
    switch(state){
        case SM5_init:
            break;
     88a:	00 00       	nop
            transmit_data_rows(bullet_y_g);
            break;
        default:
            break;
    }
    return state;
     88c:	89 81       	ldd	r24, Y+1	; 0x01
     88e:	9a 81       	ldd	r25, Y+2	; 0x02
};
     890:	0f 90       	pop	r0
     892:	0f 90       	pop	r0
     894:	df 91       	pop	r29
     896:	cf 91       	pop	r28
     898:	08 95       	ret

0000089a <SMTick6>:

enum SM6_States {SM6_init, SM6_spawn, SM6_move, SM6_pause};

int SMTick6(int state){
     89a:	cf 93       	push	r28
     89c:	df 93       	push	r29
     89e:	00 d0       	rcall	.+0      	; 0x8a0 <SMTick6+0x6>
     8a0:	00 d0       	rcall	.+0      	; 0x8a2 <SMTick6+0x8>
     8a2:	cd b7       	in	r28, 0x3d	; 61
     8a4:	de b7       	in	r29, 0x3e	; 62
     8a6:	9c 83       	std	Y+4, r25	; 0x04
     8a8:	8b 83       	std	Y+3, r24	; 0x03
    switch(state){
     8aa:	8b 81       	ldd	r24, Y+3	; 0x03
     8ac:	9c 81       	ldd	r25, Y+4	; 0x04
     8ae:	81 30       	cpi	r24, 0x01	; 1
     8b0:	91 05       	cpc	r25, r1
     8b2:	91 f0       	breq	.+36     	; 0x8d8 <SMTick6+0x3e>
     8b4:	82 30       	cpi	r24, 0x02	; 2
     8b6:	91 05       	cpc	r25, r1
     8b8:	1c f4       	brge	.+6      	; 0x8c0 <SMTick6+0x26>
     8ba:	00 97       	sbiw	r24, 0x00	; 0
     8bc:	41 f0       	breq	.+16     	; 0x8ce <SMTick6+0x34>
     8be:	43 c0       	rjmp	.+134    	; 0x946 <SMTick6+0xac>
     8c0:	82 30       	cpi	r24, 0x02	; 2
     8c2:	91 05       	cpc	r25, r1
     8c4:	41 f1       	breq	.+80     	; 0x916 <SMTick6+0x7c>
     8c6:	83 30       	cpi	r24, 0x03	; 3
     8c8:	91 05       	cpc	r25, r1
     8ca:	79 f1       	breq	.+94     	; 0x92a <SMTick6+0x90>
     8cc:	3c c0       	rjmp	.+120    	; 0x946 <SMTick6+0xac>
        case SM6_init:
            state = SM6_spawn;
     8ce:	81 e0       	ldi	r24, 0x01	; 1
     8d0:	90 e0       	ldi	r25, 0x00	; 0
     8d2:	9c 83       	std	Y+4, r25	; 0x04
     8d4:	8b 83       	std	Y+3, r24	; 0x03
            break;
     8d6:	3a c0       	rjmp	.+116    	; 0x94c <SMTick6+0xb2>
        case SM6_spawn:
            enemy_row[0] = 32; enemy_row[1] = 64; enemy_row[2] = 128;
     8d8:	80 e2       	ldi	r24, 0x20	; 32
     8da:	80 93 27 01 	sts	0x0127, r24
     8de:	80 e4       	ldi	r24, 0x40	; 64
     8e0:	80 93 28 01 	sts	0x0128, r24
     8e4:	80 e8       	ldi	r24, 0x80	; 128
     8e6:	80 93 29 01 	sts	0x0129, r24
            enemy_col[0] = 126; enemy_col[1] = 126; enemy_col[2] = 126;
     8ea:	8e e7       	ldi	r24, 0x7E	; 126
     8ec:	80 93 24 01 	sts	0x0124, r24
     8f0:	8e e7       	ldi	r24, 0x7E	; 126
     8f2:	80 93 25 01 	sts	0x0125, r24
     8f6:	8e e7       	ldi	r24, 0x7E	; 126
     8f8:	80 93 26 01 	sts	0x0126, r24
            if(paused_g == 1){
     8fc:	80 91 2b 01 	lds	r24, 0x012B
     900:	81 30       	cpi	r24, 0x01	; 1
     902:	21 f4       	brne	.+8      	; 0x90c <SMTick6+0x72>
                state = SM6_pause;
     904:	83 e0       	ldi	r24, 0x03	; 3
     906:	90 e0       	ldi	r25, 0x00	; 0
     908:	9c 83       	std	Y+4, r25	; 0x04
     90a:	8b 83       	std	Y+3, r24	; 0x03
            }
            state = SM6_move;
     90c:	82 e0       	ldi	r24, 0x02	; 2
     90e:	90 e0       	ldi	r25, 0x00	; 0
     910:	9c 83       	std	Y+4, r25	; 0x04
     912:	8b 83       	std	Y+3, r24	; 0x03
            break;
     914:	1b c0       	rjmp	.+54     	; 0x94c <SMTick6+0xb2>
        case SM6_move:
            if(paused_g){
     916:	80 91 2b 01 	lds	r24, 0x012B
     91a:	88 23       	and	r24, r24
     91c:	29 f0       	breq	.+10     	; 0x928 <SMTick6+0x8e>
                state = SM6_pause;
     91e:	83 e0       	ldi	r24, 0x03	; 3
     920:	90 e0       	ldi	r25, 0x00	; 0
     922:	9c 83       	std	Y+4, r25	; 0x04
     924:	8b 83       	std	Y+3, r24	; 0x03
            }
            break;
     926:	12 c0       	rjmp	.+36     	; 0x94c <SMTick6+0xb2>
     928:	11 c0       	rjmp	.+34     	; 0x94c <SMTick6+0xb2>
        case SM6_pause:
            if(paused_g == 1){
     92a:	80 91 2b 01 	lds	r24, 0x012B
     92e:	81 30       	cpi	r24, 0x01	; 1
     930:	29 f4       	brne	.+10     	; 0x93c <SMTick6+0xa2>
                state = SM6_pause;
     932:	83 e0       	ldi	r24, 0x03	; 3
     934:	90 e0       	ldi	r25, 0x00	; 0
     936:	9c 83       	std	Y+4, r25	; 0x04
     938:	8b 83       	std	Y+3, r24	; 0x03
            }
            else{
                state = SM6_move;
            }
            break;
     93a:	08 c0       	rjmp	.+16     	; 0x94c <SMTick6+0xb2>
        case SM6_pause:
            if(paused_g == 1){
                state = SM6_pause;
            }
            else{
                state = SM6_move;
     93c:	82 e0       	ldi	r24, 0x02	; 2
     93e:	90 e0       	ldi	r25, 0x00	; 0
     940:	9c 83       	std	Y+4, r25	; 0x04
     942:	8b 83       	std	Y+3, r24	; 0x03
            }
            break;
     944:	03 c0       	rjmp	.+6      	; 0x94c <SMTick6+0xb2>
        default:
            state = SM6_init;
     946:	1c 82       	std	Y+4, r1	; 0x04
     948:	1b 82       	std	Y+3, r1	; 0x03
            break;
     94a:	00 00       	nop
    }

    switch (state){
     94c:	8b 81       	ldd	r24, Y+3	; 0x03
     94e:	9c 81       	ldd	r25, Y+4	; 0x04
     950:	81 30       	cpi	r24, 0x01	; 1
     952:	91 05       	cpc	r25, r1
     954:	79 f0       	breq	.+30     	; 0x974 <SMTick6+0xda>
     956:	82 30       	cpi	r24, 0x02	; 2
     958:	91 05       	cpc	r25, r1
     95a:	24 f4       	brge	.+8      	; 0x964 <SMTick6+0xca>
     95c:	00 97       	sbiw	r24, 0x00	; 0
     95e:	09 f4       	brne	.+2      	; 0x962 <SMTick6+0xc8>
     960:	9b c0       	rjmp	.+310    	; 0xa98 <SMTick6+0x1fe>
            }
            break;
        case SM6_pause:
            break;
        default:
            break;
     962:	9d c0       	rjmp	.+314    	; 0xa9e <SMTick6+0x204>
        default:
            state = SM6_init;
            break;
    }

    switch (state){
     964:	82 30       	cpi	r24, 0x02	; 2
     966:	91 05       	cpc	r25, r1
     968:	49 f0       	breq	.+18     	; 0x97c <SMTick6+0xe2>
     96a:	83 30       	cpi	r24, 0x03	; 3
     96c:	91 05       	cpc	r25, r1
     96e:	09 f4       	brne	.+2      	; 0x972 <SMTick6+0xd8>
     970:	95 c0       	rjmp	.+298    	; 0xa9c <SMTick6+0x202>
            }
            break;
        case SM6_pause:
            break;
        default:
            break;
     972:	95 c0       	rjmp	.+298    	; 0xa9e <SMTick6+0x204>

    switch (state){
        case SM6_init:
            break;
        case SM6_spawn:
            move_left = 1; // Begin shifting left.
     974:	81 e0       	ldi	r24, 0x01	; 1
     976:	80 93 2a 01 	sts	0x012A, r24
            break;
     97a:	91 c0       	rjmp	.+290    	; 0xa9e <SMTick6+0x204>
        case SM6_move:
            to_display_g = 0;
     97c:	10 92 81 01 	sts	0x0181, r1
            int i;
            for(i = 0; i < 3; ++i){
     980:	1a 82       	std	Y+2, r1	; 0x02
     982:	19 82       	std	Y+1, r1	; 0x01
     984:	05 c0       	rjmp	.+10     	; 0x990 <SMTick6+0xf6>
     986:	89 81       	ldd	r24, Y+1	; 0x01
     988:	9a 81       	ldd	r25, Y+2	; 0x02
     98a:	01 96       	adiw	r24, 0x01	; 1
     98c:	9a 83       	std	Y+2, r25	; 0x02
     98e:	89 83       	std	Y+1, r24	; 0x01
     990:	89 81       	ldd	r24, Y+1	; 0x01
     992:	9a 81       	ldd	r25, Y+2	; 0x02
     994:	83 30       	cpi	r24, 0x03	; 3
     996:	91 05       	cpc	r25, r1
     998:	b4 f3       	brlt	.-20     	; 0x986 <SMTick6+0xec>
                
            }
            transmit_data_rows(0);
     99a:	80 e0       	ldi	r24, 0x00	; 0
     99c:	95 dd       	rcall	.-1238   	; 0x4c8 <transmit_data_rows>
            transmit_data_cols(~enemy_col[0]);
     99e:	80 91 24 01 	lds	r24, 0x0124
     9a2:	80 95       	com	r24
     9a4:	48 dd       	rcall	.-1392   	; 0x436 <transmit_data_cols>
            transmit_data_rows(enemy_row[0]);
     9a6:	80 91 27 01 	lds	r24, 0x0127
     9aa:	8e dd       	rcall	.-1252   	; 0x4c8 <transmit_data_rows>
            transmit_data_cols(~enemy_col[1]);
     9ac:	80 91 25 01 	lds	r24, 0x0125
     9b0:	80 95       	com	r24
     9b2:	41 dd       	rcall	.-1406   	; 0x436 <transmit_data_cols>
            transmit_data_rows(enemy_row[1]);
     9b4:	80 91 28 01 	lds	r24, 0x0128
     9b8:	87 dd       	rcall	.-1266   	; 0x4c8 <transmit_data_rows>
            transmit_data_cols(~enemy_col[2]);
     9ba:	80 91 26 01 	lds	r24, 0x0126
     9be:	80 95       	com	r24
     9c0:	3a dd       	rcall	.-1420   	; 0x436 <transmit_data_cols>
            transmit_data_rows(enemy_row[2]);
     9c2:	80 91 29 01 	lds	r24, 0x0129
     9c6:	80 dd       	rcall	.-1280   	; 0x4c8 <transmit_data_rows>
            if(bullet_y_g == enemy_row[0]){
     9c8:	90 91 27 01 	lds	r25, 0x0127
     9cc:	80 91 21 01 	lds	r24, 0x0121
     9d0:	98 17       	cp	r25, r24
     9d2:	e1 f4       	brne	.+56     	; 0xa0c <SMTick6+0x172>
                if((bullet_x_g & enemy_col[0]) != 0){
     9d4:	90 91 24 01 	lds	r25, 0x0124
     9d8:	80 91 20 01 	lds	r24, 0x0120
     9dc:	89 23       	and	r24, r25
     9de:	88 23       	and	r24, r24
     9e0:	a9 f0       	breq	.+42     	; 0xa0c <SMTick6+0x172>
                    enemy_col[0] = enemy_col[0] ^ (char) bullet_x_g;
     9e2:	90 91 24 01 	lds	r25, 0x0124
     9e6:	80 91 20 01 	lds	r24, 0x0120
     9ea:	89 27       	eor	r24, r25
     9ec:	80 93 24 01 	sts	0x0124, r24
                    bullet_live = 0;
     9f0:	10 92 23 01 	sts	0x0123, r1
                    bullet_x_g = 0;
     9f4:	10 92 20 01 	sts	0x0120, r1
                    bullet_y_g = 0;
     9f8:	10 92 21 01 	sts	0x0121, r1
                    to_display_g = 1;
     9fc:	81 e0       	ldi	r24, 0x01	; 1
     9fe:	80 93 81 01 	sts	0x0181, r24
                    score += 1;
     a02:	80 91 2c 01 	lds	r24, 0x012C
     a06:	8f 5f       	subi	r24, 0xFF	; 255
     a08:	80 93 2c 01 	sts	0x012C, r24
                }
            }
            if(bullet_y_g == enemy_row[1]){
     a0c:	90 91 28 01 	lds	r25, 0x0128
     a10:	80 91 21 01 	lds	r24, 0x0121
     a14:	98 17       	cp	r25, r24
     a16:	e1 f4       	brne	.+56     	; 0xa50 <SMTick6+0x1b6>
                if((bullet_x_g & enemy_col[1]) != 0){
     a18:	90 91 25 01 	lds	r25, 0x0125
     a1c:	80 91 20 01 	lds	r24, 0x0120
     a20:	89 23       	and	r24, r25
     a22:	88 23       	and	r24, r24
     a24:	a9 f0       	breq	.+42     	; 0xa50 <SMTick6+0x1b6>
                    enemy_col[1] = enemy_col[1] ^ (char) bullet_x_g;
     a26:	90 91 25 01 	lds	r25, 0x0125
     a2a:	80 91 20 01 	lds	r24, 0x0120
     a2e:	89 27       	eor	r24, r25
     a30:	80 93 25 01 	sts	0x0125, r24
                    bullet_live = 0;
     a34:	10 92 23 01 	sts	0x0123, r1
                    bullet_x_g = 0;
     a38:	10 92 20 01 	sts	0x0120, r1
                    bullet_y_g = 0;
     a3c:	10 92 21 01 	sts	0x0121, r1
                    to_display_g = 1;
     a40:	81 e0       	ldi	r24, 0x01	; 1
     a42:	80 93 81 01 	sts	0x0181, r24
                    score += 1;
     a46:	80 91 2c 01 	lds	r24, 0x012C
     a4a:	8f 5f       	subi	r24, 0xFF	; 255
     a4c:	80 93 2c 01 	sts	0x012C, r24
                }
            }
            if(bullet_y_g == enemy_row[2]){
     a50:	90 91 29 01 	lds	r25, 0x0129
     a54:	80 91 21 01 	lds	r24, 0x0121
     a58:	98 17       	cp	r25, r24
     a5a:	e9 f4       	brne	.+58     	; 0xa96 <SMTick6+0x1fc>
                if((bullet_x_g & enemy_col[2]) != 0){
     a5c:	90 91 26 01 	lds	r25, 0x0126
     a60:	80 91 20 01 	lds	r24, 0x0120
     a64:	89 23       	and	r24, r25
     a66:	88 23       	and	r24, r24
     a68:	b1 f0       	breq	.+44     	; 0xa96 <SMTick6+0x1fc>
                    enemy_col[2] = enemy_col[2] ^ (char) bullet_x_g;
     a6a:	90 91 26 01 	lds	r25, 0x0126
     a6e:	80 91 20 01 	lds	r24, 0x0120
     a72:	89 27       	eor	r24, r25
     a74:	80 93 26 01 	sts	0x0126, r24
                    bullet_live = 0;
     a78:	10 92 23 01 	sts	0x0123, r1
                    bullet_x_g = 0;
     a7c:	10 92 20 01 	sts	0x0120, r1
                    bullet_y_g = 0;
     a80:	10 92 21 01 	sts	0x0121, r1
                    to_display_g = 1;
     a84:	81 e0       	ldi	r24, 0x01	; 1
     a86:	80 93 81 01 	sts	0x0181, r24
                    score += 1;
     a8a:	80 91 2c 01 	lds	r24, 0x012C
     a8e:	8f 5f       	subi	r24, 0xFF	; 255
     a90:	80 93 2c 01 	sts	0x012C, r24
                }
            }
            break;
     a94:	04 c0       	rjmp	.+8      	; 0xa9e <SMTick6+0x204>
     a96:	03 c0       	rjmp	.+6      	; 0xa9e <SMTick6+0x204>
            break;
    }

    switch (state){
        case SM6_init:
            break;
     a98:	00 00       	nop
     a9a:	01 c0       	rjmp	.+2      	; 0xa9e <SMTick6+0x204>
                    score += 1;
                }
            }
            break;
        case SM6_pause:
            break;
     a9c:	00 00       	nop
        default:
            break;
    }
    return state;
     a9e:	8b 81       	ldd	r24, Y+3	; 0x03
     aa0:	9c 81       	ldd	r25, Y+4	; 0x04
}
     aa2:	0f 90       	pop	r0
     aa4:	0f 90       	pop	r0
     aa6:	0f 90       	pop	r0
     aa8:	0f 90       	pop	r0
     aaa:	df 91       	pop	r29
     aac:	cf 91       	pop	r28
     aae:	08 95       	ret

00000ab0 <SMTick7>:

enum SM7_States{SM7_init, SM7_wait, SM7_update, SM7_display_off};

int SMTick7(int state){
     ab0:	cf 93       	push	r28
     ab2:	df 93       	push	r29
     ab4:	00 d0       	rcall	.+0      	; 0xab6 <SMTick7+0x6>
     ab6:	cd b7       	in	r28, 0x3d	; 61
     ab8:	de b7       	in	r29, 0x3e	; 62
     aba:	9a 83       	std	Y+2, r25	; 0x02
     abc:	89 83       	std	Y+1, r24	; 0x01
    switch(state){
     abe:	89 81       	ldd	r24, Y+1	; 0x01
     ac0:	9a 81       	ldd	r25, Y+2	; 0x02
     ac2:	81 30       	cpi	r24, 0x01	; 1
     ac4:	91 05       	cpc	r25, r1
     ac6:	91 f0       	breq	.+36     	; 0xaec <SMTick7+0x3c>
     ac8:	82 30       	cpi	r24, 0x02	; 2
     aca:	91 05       	cpc	r25, r1
     acc:	1c f4       	brge	.+6      	; 0xad4 <SMTick7+0x24>
     ace:	00 97       	sbiw	r24, 0x00	; 0
     ad0:	41 f0       	breq	.+16     	; 0xae2 <SMTick7+0x32>
     ad2:	20 c0       	rjmp	.+64     	; 0xb14 <SMTick7+0x64>
     ad4:	82 30       	cpi	r24, 0x02	; 2
     ad6:	91 05       	cpc	r25, r1
     ad8:	99 f0       	breq	.+38     	; 0xb00 <SMTick7+0x50>
     ada:	83 30       	cpi	r24, 0x03	; 3
     adc:	91 05       	cpc	r25, r1
     ade:	a9 f0       	breq	.+42     	; 0xb0a <SMTick7+0x5a>
     ae0:	19 c0       	rjmp	.+50     	; 0xb14 <SMTick7+0x64>
        case SM7_init:
            state = SM7_wait;
     ae2:	81 e0       	ldi	r24, 0x01	; 1
     ae4:	90 e0       	ldi	r25, 0x00	; 0
     ae6:	9a 83       	std	Y+2, r25	; 0x02
     ae8:	89 83       	std	Y+1, r24	; 0x01
            break;
     aea:	17 c0       	rjmp	.+46     	; 0xb1a <SMTick7+0x6a>
        case SM7_wait:
            if(to_display_g){
     aec:	80 91 81 01 	lds	r24, 0x0181
     af0:	88 23       	and	r24, r24
     af2:	29 f0       	breq	.+10     	; 0xafe <SMTick7+0x4e>
                state = SM7_update;    
     af4:	82 e0       	ldi	r24, 0x02	; 2
     af6:	90 e0       	ldi	r25, 0x00	; 0
     af8:	9a 83       	std	Y+2, r25	; 0x02
     afa:	89 83       	std	Y+1, r24	; 0x01
            }
            break;
     afc:	0e c0       	rjmp	.+28     	; 0xb1a <SMTick7+0x6a>
     afe:	0d c0       	rjmp	.+26     	; 0xb1a <SMTick7+0x6a>
        case SM7_update:
            state = SM7_wait;
     b00:	81 e0       	ldi	r24, 0x01	; 1
     b02:	90 e0       	ldi	r25, 0x00	; 0
     b04:	9a 83       	std	Y+2, r25	; 0x02
     b06:	89 83       	std	Y+1, r24	; 0x01
            break;
     b08:	08 c0       	rjmp	.+16     	; 0xb1a <SMTick7+0x6a>
        case SM7_display_off:
            state = SM7_display_off;
     b0a:	83 e0       	ldi	r24, 0x03	; 3
     b0c:	90 e0       	ldi	r25, 0x00	; 0
     b0e:	9a 83       	std	Y+2, r25	; 0x02
     b10:	89 83       	std	Y+1, r24	; 0x01
            break;
     b12:	03 c0       	rjmp	.+6      	; 0xb1a <SMTick7+0x6a>
        default:
            state = SM7_init;
     b14:	1a 82       	std	Y+2, r1	; 0x02
     b16:	19 82       	std	Y+1, r1	; 0x01
            break;
     b18:	00 00       	nop
    }
    switch(state){
     b1a:	89 81       	ldd	r24, Y+1	; 0x01
     b1c:	9a 81       	ldd	r25, Y+2	; 0x02
     b1e:	81 30       	cpi	r24, 0x01	; 1
     b20:	91 05       	cpc	r25, r1
     b22:	89 f0       	breq	.+34     	; 0xb46 <SMTick7+0x96>
     b24:	82 30       	cpi	r24, 0x02	; 2
     b26:	91 05       	cpc	r25, r1
     b28:	1c f4       	brge	.+6      	; 0xb30 <SMTick7+0x80>
     b2a:	00 97       	sbiw	r24, 0x00	; 0
     b2c:	71 f0       	breq	.+28     	; 0xb4a <SMTick7+0x9a>
            LCD_WriteData(score);
            break;
        case SM7_display_off:
            break;
        default:
            break;
     b2e:	10 c0       	rjmp	.+32     	; 0xb50 <SMTick7+0xa0>
            break;
        default:
            state = SM7_init;
            break;
    }
    switch(state){
     b30:	82 30       	cpi	r24, 0x02	; 2
     b32:	91 05       	cpc	r25, r1
     b34:	21 f0       	breq	.+8      	; 0xb3e <SMTick7+0x8e>
     b36:	83 30       	cpi	r24, 0x03	; 3
     b38:	91 05       	cpc	r25, r1
     b3a:	49 f0       	breq	.+18     	; 0xb4e <SMTick7+0x9e>
            LCD_WriteData(score);
            break;
        case SM7_display_off:
            break;
        default:
            break;
     b3c:	09 c0       	rjmp	.+18     	; 0xb50 <SMTick7+0xa0>
        case SM7_init:
            break;
        case SM7_wait:
            break;
        case SM7_update:
            LCD_WriteData(score);
     b3e:	80 91 2c 01 	lds	r24, 0x012C
     b42:	06 db       	rcall	.-2548   	; 0x150 <LCD_WriteData>
            break;
     b44:	05 c0       	rjmp	.+10     	; 0xb50 <SMTick7+0xa0>
    }
    switch(state){
        case SM7_init:
            break;
        case SM7_wait:
            break;
     b46:	00 00       	nop
     b48:	03 c0       	rjmp	.+6      	; 0xb50 <SMTick7+0xa0>
            state = SM7_init;
            break;
    }
    switch(state){
        case SM7_init:
            break;
     b4a:	00 00       	nop
     b4c:	01 c0       	rjmp	.+2      	; 0xb50 <SMTick7+0xa0>
            break;
        case SM7_update:
            LCD_WriteData(score);
            break;
        case SM7_display_off:
            break;
     b4e:	00 00       	nop
        default:
            break;
    }
    return state;
     b50:	89 81       	ldd	r24, Y+1	; 0x01
     b52:	9a 81       	ldd	r25, Y+2	; 0x02
}
     b54:	0f 90       	pop	r0
     b56:	0f 90       	pop	r0
     b58:	df 91       	pop	r29
     b5a:	cf 91       	pop	r28
     b5c:	08 95       	ret

00000b5e <main>:

int main(void){
     b5e:	0f 93       	push	r16
     b60:	1f 93       	push	r17
     b62:	cf 93       	push	r28
     b64:	df 93       	push	r29
     b66:	cd b7       	in	r28, 0x3d	; 61
     b68:	de b7       	in	r29, 0x3e	; 62
     b6a:	ce 56       	subi	r28, 0x6E	; 110
     b6c:	d1 09       	sbc	r29, r1
     b6e:	0f b6       	in	r0, 0x3f	; 63
     b70:	f8 94       	cli
     b72:	de bf       	out	0x3e, r29	; 62
     b74:	0f be       	out	0x3f, r0	; 63
     b76:	cd bf       	out	0x3d, r28	; 61
    
    DDRA = 0x03; PORTA = 0xFC; // LCD Control Lines
     b78:	81 e2       	ldi	r24, 0x21	; 33
     b7a:	90 e0       	ldi	r25, 0x00	; 0
     b7c:	23 e0       	ldi	r18, 0x03	; 3
     b7e:	fc 01       	movw	r30, r24
     b80:	20 83       	st	Z, r18
     b82:	82 e2       	ldi	r24, 0x22	; 34
     b84:	90 e0       	ldi	r25, 0x00	; 0
     b86:	2c ef       	ldi	r18, 0xFC	; 252
     b88:	fc 01       	movw	r30, r24
     b8a:	20 83       	st	Z, r18
    DDRB = 0xFF; PORTB = 0x00;
     b8c:	84 e2       	ldi	r24, 0x24	; 36
     b8e:	90 e0       	ldi	r25, 0x00	; 0
     b90:	2f ef       	ldi	r18, 0xFF	; 255
     b92:	fc 01       	movw	r30, r24
     b94:	20 83       	st	Z, r18
     b96:	85 e2       	ldi	r24, 0x25	; 37
     b98:	90 e0       	ldi	r25, 0x00	; 0
     b9a:	fc 01       	movw	r30, r24
     b9c:	10 82       	st	Z, r1
    DDRC = 0x0F; PORTC = 0xF0; // Keypad Input
     b9e:	87 e2       	ldi	r24, 0x27	; 39
     ba0:	90 e0       	ldi	r25, 0x00	; 0
     ba2:	2f e0       	ldi	r18, 0x0F	; 15
     ba4:	fc 01       	movw	r30, r24
     ba6:	20 83       	st	Z, r18
     ba8:	88 e2       	ldi	r24, 0x28	; 40
     baa:	90 e0       	ldi	r25, 0x00	; 0
     bac:	20 ef       	ldi	r18, 0xF0	; 240
     bae:	fc 01       	movw	r30, r24
     bb0:	20 83       	st	Z, r18
    DDRD = 0xFF; PORTD = 0x00; // LCD Data lines
     bb2:	8a e2       	ldi	r24, 0x2A	; 42
     bb4:	90 e0       	ldi	r25, 0x00	; 0
     bb6:	2f ef       	ldi	r18, 0xFF	; 255
     bb8:	fc 01       	movw	r30, r24
     bba:	20 83       	st	Z, r18
     bbc:	8b e2       	ldi	r24, 0x2B	; 43
     bbe:	90 e0       	ldi	r25, 0x00	; 0
     bc0:	fc 01       	movw	r30, r24
     bc2:	10 82       	st	Z, r1
    
    unsigned long int SMTick1_calc = 10;
     bc4:	8a e0       	ldi	r24, 0x0A	; 10
     bc6:	90 e0       	ldi	r25, 0x00	; 0
     bc8:	a0 e0       	ldi	r26, 0x00	; 0
     bca:	b0 e0       	ldi	r27, 0x00	; 0
     bcc:	8b 83       	std	Y+3, r24	; 0x03
     bce:	9c 83       	std	Y+4, r25	; 0x04
     bd0:	ad 83       	std	Y+5, r26	; 0x05
     bd2:	be 83       	std	Y+6, r27	; 0x06
    unsigned long int SMTick2_calc = 10;
     bd4:	8a e0       	ldi	r24, 0x0A	; 10
     bd6:	90 e0       	ldi	r25, 0x00	; 0
     bd8:	a0 e0       	ldi	r26, 0x00	; 0
     bda:	b0 e0       	ldi	r27, 0x00	; 0
     bdc:	8f 83       	std	Y+7, r24	; 0x07
     bde:	98 87       	std	Y+8, r25	; 0x08
     be0:	a9 87       	std	Y+9, r26	; 0x09
     be2:	ba 87       	std	Y+10, r27	; 0x0a
    unsigned long int SMTick3_calc = 25;
     be4:	89 e1       	ldi	r24, 0x19	; 25
     be6:	90 e0       	ldi	r25, 0x00	; 0
     be8:	a0 e0       	ldi	r26, 0x00	; 0
     bea:	b0 e0       	ldi	r27, 0x00	; 0
     bec:	8b 87       	std	Y+11, r24	; 0x0b
     bee:	9c 87       	std	Y+12, r25	; 0x0c
     bf0:	ad 87       	std	Y+13, r26	; 0x0d
     bf2:	be 87       	std	Y+14, r27	; 0x0e
    unsigned long int SMTick4_calc = 75;
     bf4:	8b e4       	ldi	r24, 0x4B	; 75
     bf6:	90 e0       	ldi	r25, 0x00	; 0
     bf8:	a0 e0       	ldi	r26, 0x00	; 0
     bfa:	b0 e0       	ldi	r27, 0x00	; 0
     bfc:	8f 87       	std	Y+15, r24	; 0x0f
     bfe:	98 8b       	std	Y+16, r25	; 0x10
     c00:	a9 8b       	std	Y+17, r26	; 0x11
     c02:	ba 8b       	std	Y+18, r27	; 0x12
    unsigned long int SMTick5_calc = 150;
     c04:	86 e9       	ldi	r24, 0x96	; 150
     c06:	90 e0       	ldi	r25, 0x00	; 0
     c08:	a0 e0       	ldi	r26, 0x00	; 0
     c0a:	b0 e0       	ldi	r27, 0x00	; 0
     c0c:	8b 8b       	std	Y+19, r24	; 0x13
     c0e:	9c 8b       	std	Y+20, r25	; 0x14
     c10:	ad 8b       	std	Y+21, r26	; 0x15
     c12:	be 8b       	std	Y+22, r27	; 0x16
    unsigned long int SMTick6_calc = 10;
     c14:	8a e0       	ldi	r24, 0x0A	; 10
     c16:	90 e0       	ldi	r25, 0x00	; 0
     c18:	a0 e0       	ldi	r26, 0x00	; 0
     c1a:	b0 e0       	ldi	r27, 0x00	; 0
     c1c:	8f 8b       	std	Y+23, r24	; 0x17
     c1e:	98 8f       	std	Y+24, r25	; 0x18
     c20:	a9 8f       	std	Y+25, r26	; 0x19
     c22:	ba 8f       	std	Y+26, r27	; 0x1a
    unsigned long int SMTick7_calc = 10;
     c24:	8a e0       	ldi	r24, 0x0A	; 10
     c26:	90 e0       	ldi	r25, 0x00	; 0
     c28:	a0 e0       	ldi	r26, 0x00	; 0
     c2a:	b0 e0       	ldi	r27, 0x00	; 0
     c2c:	8b 8f       	std	Y+27, r24	; 0x1b
     c2e:	9c 8f       	std	Y+28, r25	; 0x1c
     c30:	ad 8f       	std	Y+29, r26	; 0x1d
     c32:	be 8f       	std	Y+30, r27	; 0x1e

    unsigned long int tmpGCD = 1;
     c34:	81 e0       	ldi	r24, 0x01	; 1
     c36:	90 e0       	ldi	r25, 0x00	; 0
     c38:	a0 e0       	ldi	r26, 0x00	; 0
     c3a:	b0 e0       	ldi	r27, 0x00	; 0
     c3c:	8f 8f       	std	Y+31, r24	; 0x1f
     c3e:	98 a3       	std	Y+32, r25	; 0x20
     c40:	a9 a3       	std	Y+33, r26	; 0x21
     c42:	ba a3       	std	Y+34, r27	; 0x22
    tmpGCD = findGCD(SMTick1_calc, SMTick2_calc);
     c44:	2f 81       	ldd	r18, Y+7	; 0x07
     c46:	38 85       	ldd	r19, Y+8	; 0x08
     c48:	49 85       	ldd	r20, Y+9	; 0x09
     c4a:	5a 85       	ldd	r21, Y+10	; 0x0a
     c4c:	8b 81       	ldd	r24, Y+3	; 0x03
     c4e:	9c 81       	ldd	r25, Y+4	; 0x04
     c50:	ad 81       	ldd	r26, Y+5	; 0x05
     c52:	be 81       	ldd	r27, Y+6	; 0x06
     c54:	bc 01       	movw	r22, r24
     c56:	cd 01       	movw	r24, r26
     c58:	a2 db       	rcall	.-2236   	; 0x39e <findGCD>
     c5a:	dc 01       	movw	r26, r24
     c5c:	cb 01       	movw	r24, r22
     c5e:	8f 8f       	std	Y+31, r24	; 0x1f
     c60:	98 a3       	std	Y+32, r25	; 0x20
     c62:	a9 a3       	std	Y+33, r26	; 0x21
     c64:	ba a3       	std	Y+34, r27	; 0x22
    tmpGCD = findGCD(SMTick3_calc, tmpGCD);
     c66:	2f 8d       	ldd	r18, Y+31	; 0x1f
     c68:	38 a1       	ldd	r19, Y+32	; 0x20
     c6a:	49 a1       	ldd	r20, Y+33	; 0x21
     c6c:	5a a1       	ldd	r21, Y+34	; 0x22
     c6e:	8b 85       	ldd	r24, Y+11	; 0x0b
     c70:	9c 85       	ldd	r25, Y+12	; 0x0c
     c72:	ad 85       	ldd	r26, Y+13	; 0x0d
     c74:	be 85       	ldd	r27, Y+14	; 0x0e
     c76:	bc 01       	movw	r22, r24
     c78:	cd 01       	movw	r24, r26
     c7a:	91 db       	rcall	.-2270   	; 0x39e <findGCD>
     c7c:	dc 01       	movw	r26, r24
     c7e:	cb 01       	movw	r24, r22
     c80:	8f 8f       	std	Y+31, r24	; 0x1f
     c82:	98 a3       	std	Y+32, r25	; 0x20
     c84:	a9 a3       	std	Y+33, r26	; 0x21
     c86:	ba a3       	std	Y+34, r27	; 0x22
    tmpGCD = findGCD(SMTick4_calc, tmpGCD);
     c88:	2f 8d       	ldd	r18, Y+31	; 0x1f
     c8a:	38 a1       	ldd	r19, Y+32	; 0x20
     c8c:	49 a1       	ldd	r20, Y+33	; 0x21
     c8e:	5a a1       	ldd	r21, Y+34	; 0x22
     c90:	8f 85       	ldd	r24, Y+15	; 0x0f
     c92:	98 89       	ldd	r25, Y+16	; 0x10
     c94:	a9 89       	ldd	r26, Y+17	; 0x11
     c96:	ba 89       	ldd	r27, Y+18	; 0x12
     c98:	bc 01       	movw	r22, r24
     c9a:	cd 01       	movw	r24, r26
     c9c:	80 db       	rcall	.-2304   	; 0x39e <findGCD>
     c9e:	dc 01       	movw	r26, r24
     ca0:	cb 01       	movw	r24, r22
     ca2:	8f 8f       	std	Y+31, r24	; 0x1f
     ca4:	98 a3       	std	Y+32, r25	; 0x20
     ca6:	a9 a3       	std	Y+33, r26	; 0x21
     ca8:	ba a3       	std	Y+34, r27	; 0x22
    tmpGCD = findGCD(SMTick5_calc, tmpGCD);
     caa:	2f 8d       	ldd	r18, Y+31	; 0x1f
     cac:	38 a1       	ldd	r19, Y+32	; 0x20
     cae:	49 a1       	ldd	r20, Y+33	; 0x21
     cb0:	5a a1       	ldd	r21, Y+34	; 0x22
     cb2:	8b 89       	ldd	r24, Y+19	; 0x13
     cb4:	9c 89       	ldd	r25, Y+20	; 0x14
     cb6:	ad 89       	ldd	r26, Y+21	; 0x15
     cb8:	be 89       	ldd	r27, Y+22	; 0x16
     cba:	bc 01       	movw	r22, r24
     cbc:	cd 01       	movw	r24, r26
     cbe:	6f db       	rcall	.-2338   	; 0x39e <findGCD>
     cc0:	dc 01       	movw	r26, r24
     cc2:	cb 01       	movw	r24, r22
     cc4:	8f 8f       	std	Y+31, r24	; 0x1f
     cc6:	98 a3       	std	Y+32, r25	; 0x20
     cc8:	a9 a3       	std	Y+33, r26	; 0x21
     cca:	ba a3       	std	Y+34, r27	; 0x22
    tmpGCD = findGCD(SMTick6_calc, tmpGCD);
     ccc:	2f 8d       	ldd	r18, Y+31	; 0x1f
     cce:	38 a1       	ldd	r19, Y+32	; 0x20
     cd0:	49 a1       	ldd	r20, Y+33	; 0x21
     cd2:	5a a1       	ldd	r21, Y+34	; 0x22
     cd4:	8f 89       	ldd	r24, Y+23	; 0x17
     cd6:	98 8d       	ldd	r25, Y+24	; 0x18
     cd8:	a9 8d       	ldd	r26, Y+25	; 0x19
     cda:	ba 8d       	ldd	r27, Y+26	; 0x1a
     cdc:	bc 01       	movw	r22, r24
     cde:	cd 01       	movw	r24, r26
     ce0:	5e db       	rcall	.-2372   	; 0x39e <findGCD>
     ce2:	dc 01       	movw	r26, r24
     ce4:	cb 01       	movw	r24, r22
     ce6:	8f 8f       	std	Y+31, r24	; 0x1f
     ce8:	98 a3       	std	Y+32, r25	; 0x20
     cea:	a9 a3       	std	Y+33, r26	; 0x21
     cec:	ba a3       	std	Y+34, r27	; 0x22
    tmpGCD = findGCD(SMTick7_calc, tmpGCD);
     cee:	2f 8d       	ldd	r18, Y+31	; 0x1f
     cf0:	38 a1       	ldd	r19, Y+32	; 0x20
     cf2:	49 a1       	ldd	r20, Y+33	; 0x21
     cf4:	5a a1       	ldd	r21, Y+34	; 0x22
     cf6:	8b 8d       	ldd	r24, Y+27	; 0x1b
     cf8:	9c 8d       	ldd	r25, Y+28	; 0x1c
     cfa:	ad 8d       	ldd	r26, Y+29	; 0x1d
     cfc:	be 8d       	ldd	r27, Y+30	; 0x1e
     cfe:	bc 01       	movw	r22, r24
     d00:	cd 01       	movw	r24, r26
     d02:	4d db       	rcall	.-2406   	; 0x39e <findGCD>
     d04:	dc 01       	movw	r26, r24
     d06:	cb 01       	movw	r24, r22
     d08:	8f 8f       	std	Y+31, r24	; 0x1f
     d0a:	98 a3       	std	Y+32, r25	; 0x20
     d0c:	a9 a3       	std	Y+33, r26	; 0x21
     d0e:	ba a3       	std	Y+34, r27	; 0x22
    
    unsigned long int GCD = tmpGCD;
     d10:	8f 8d       	ldd	r24, Y+31	; 0x1f
     d12:	98 a1       	ldd	r25, Y+32	; 0x20
     d14:	a9 a1       	ldd	r26, Y+33	; 0x21
     d16:	ba a1       	ldd	r27, Y+34	; 0x22
     d18:	8b a3       	std	Y+35, r24	; 0x23
     d1a:	9c a3       	std	Y+36, r25	; 0x24
     d1c:	ad a3       	std	Y+37, r26	; 0x25
     d1e:	be a3       	std	Y+38, r27	; 0x26
     
    unsigned long int SMTick1_period = SMTick1_calc/GCD;
     d20:	8b 81       	ldd	r24, Y+3	; 0x03
     d22:	9c 81       	ldd	r25, Y+4	; 0x04
     d24:	ad 81       	ldd	r26, Y+5	; 0x05
     d26:	be 81       	ldd	r27, Y+6	; 0x06
     d28:	2b a1       	ldd	r18, Y+35	; 0x23
     d2a:	3c a1       	ldd	r19, Y+36	; 0x24
     d2c:	4d a1       	ldd	r20, Y+37	; 0x25
     d2e:	5e a1       	ldd	r21, Y+38	; 0x26
     d30:	bc 01       	movw	r22, r24
     d32:	cd 01       	movw	r24, r26
     d34:	37 d2       	rcall	.+1134   	; 0x11a4 <__udivmodsi4>
     d36:	da 01       	movw	r26, r20
     d38:	c9 01       	movw	r24, r18
     d3a:	8f a3       	std	Y+39, r24	; 0x27
     d3c:	98 a7       	std	Y+40, r25	; 0x28
     d3e:	a9 a7       	std	Y+41, r26	; 0x29
     d40:	ba a7       	std	Y+42, r27	; 0x2a
    unsigned long int SMTick2_period = SMTick2_calc/GCD;
     d42:	8f 81       	ldd	r24, Y+7	; 0x07
     d44:	98 85       	ldd	r25, Y+8	; 0x08
     d46:	a9 85       	ldd	r26, Y+9	; 0x09
     d48:	ba 85       	ldd	r27, Y+10	; 0x0a
     d4a:	2b a1       	ldd	r18, Y+35	; 0x23
     d4c:	3c a1       	ldd	r19, Y+36	; 0x24
     d4e:	4d a1       	ldd	r20, Y+37	; 0x25
     d50:	5e a1       	ldd	r21, Y+38	; 0x26
     d52:	bc 01       	movw	r22, r24
     d54:	cd 01       	movw	r24, r26
     d56:	26 d2       	rcall	.+1100   	; 0x11a4 <__udivmodsi4>
     d58:	da 01       	movw	r26, r20
     d5a:	c9 01       	movw	r24, r18
     d5c:	8b a7       	std	Y+43, r24	; 0x2b
     d5e:	9c a7       	std	Y+44, r25	; 0x2c
     d60:	ad a7       	std	Y+45, r26	; 0x2d
     d62:	be a7       	std	Y+46, r27	; 0x2e
    unsigned long int SMTick3_period = SMTick3_calc/GCD;
     d64:	8b 85       	ldd	r24, Y+11	; 0x0b
     d66:	9c 85       	ldd	r25, Y+12	; 0x0c
     d68:	ad 85       	ldd	r26, Y+13	; 0x0d
     d6a:	be 85       	ldd	r27, Y+14	; 0x0e
     d6c:	2b a1       	ldd	r18, Y+35	; 0x23
     d6e:	3c a1       	ldd	r19, Y+36	; 0x24
     d70:	4d a1       	ldd	r20, Y+37	; 0x25
     d72:	5e a1       	ldd	r21, Y+38	; 0x26
     d74:	bc 01       	movw	r22, r24
     d76:	cd 01       	movw	r24, r26
     d78:	15 d2       	rcall	.+1066   	; 0x11a4 <__udivmodsi4>
     d7a:	da 01       	movw	r26, r20
     d7c:	c9 01       	movw	r24, r18
     d7e:	8f a7       	std	Y+47, r24	; 0x2f
     d80:	98 ab       	std	Y+48, r25	; 0x30
     d82:	a9 ab       	std	Y+49, r26	; 0x31
     d84:	ba ab       	std	Y+50, r27	; 0x32
    unsigned long int SMTick4_period = SMTick4_calc/GCD;
     d86:	8f 85       	ldd	r24, Y+15	; 0x0f
     d88:	98 89       	ldd	r25, Y+16	; 0x10
     d8a:	a9 89       	ldd	r26, Y+17	; 0x11
     d8c:	ba 89       	ldd	r27, Y+18	; 0x12
     d8e:	2b a1       	ldd	r18, Y+35	; 0x23
     d90:	3c a1       	ldd	r19, Y+36	; 0x24
     d92:	4d a1       	ldd	r20, Y+37	; 0x25
     d94:	5e a1       	ldd	r21, Y+38	; 0x26
     d96:	bc 01       	movw	r22, r24
     d98:	cd 01       	movw	r24, r26
     d9a:	04 d2       	rcall	.+1032   	; 0x11a4 <__udivmodsi4>
     d9c:	da 01       	movw	r26, r20
     d9e:	c9 01       	movw	r24, r18
     da0:	8b ab       	std	Y+51, r24	; 0x33
     da2:	9c ab       	std	Y+52, r25	; 0x34
     da4:	ad ab       	std	Y+53, r26	; 0x35
     da6:	be ab       	std	Y+54, r27	; 0x36
    unsigned long int SMTick5_period = SMTick5_calc/GCD;
     da8:	8b 89       	ldd	r24, Y+19	; 0x13
     daa:	9c 89       	ldd	r25, Y+20	; 0x14
     dac:	ad 89       	ldd	r26, Y+21	; 0x15
     dae:	be 89       	ldd	r27, Y+22	; 0x16
     db0:	2b a1       	ldd	r18, Y+35	; 0x23
     db2:	3c a1       	ldd	r19, Y+36	; 0x24
     db4:	4d a1       	ldd	r20, Y+37	; 0x25
     db6:	5e a1       	ldd	r21, Y+38	; 0x26
     db8:	bc 01       	movw	r22, r24
     dba:	cd 01       	movw	r24, r26
     dbc:	f3 d1       	rcall	.+998    	; 0x11a4 <__udivmodsi4>
     dbe:	da 01       	movw	r26, r20
     dc0:	c9 01       	movw	r24, r18
     dc2:	8f ab       	std	Y+55, r24	; 0x37
     dc4:	98 af       	std	Y+56, r25	; 0x38
     dc6:	a9 af       	std	Y+57, r26	; 0x39
     dc8:	ba af       	std	Y+58, r27	; 0x3a
    unsigned long int SMTick6_period = SMTick6_calc/GCD;
     dca:	8f 89       	ldd	r24, Y+23	; 0x17
     dcc:	98 8d       	ldd	r25, Y+24	; 0x18
     dce:	a9 8d       	ldd	r26, Y+25	; 0x19
     dd0:	ba 8d       	ldd	r27, Y+26	; 0x1a
     dd2:	2b a1       	ldd	r18, Y+35	; 0x23
     dd4:	3c a1       	ldd	r19, Y+36	; 0x24
     dd6:	4d a1       	ldd	r20, Y+37	; 0x25
     dd8:	5e a1       	ldd	r21, Y+38	; 0x26
     dda:	bc 01       	movw	r22, r24
     ddc:	cd 01       	movw	r24, r26
     dde:	e2 d1       	rcall	.+964    	; 0x11a4 <__udivmodsi4>
     de0:	da 01       	movw	r26, r20
     de2:	c9 01       	movw	r24, r18
     de4:	8b af       	std	Y+59, r24	; 0x3b
     de6:	9c af       	std	Y+60, r25	; 0x3c
     de8:	ad af       	std	Y+61, r26	; 0x3d
     dea:	be af       	std	Y+62, r27	; 0x3e
    unsigned long int SMTick7_period = SMTick7_calc/GCD;
     dec:	8e 01       	movw	r16, r28
     dee:	01 5c       	subi	r16, 0xC1	; 193
     df0:	1f 4f       	sbci	r17, 0xFF	; 255
     df2:	8b 8d       	ldd	r24, Y+27	; 0x1b
     df4:	9c 8d       	ldd	r25, Y+28	; 0x1c
     df6:	ad 8d       	ldd	r26, Y+29	; 0x1d
     df8:	be 8d       	ldd	r27, Y+30	; 0x1e
     dfa:	2b a1       	ldd	r18, Y+35	; 0x23
     dfc:	3c a1       	ldd	r19, Y+36	; 0x24
     dfe:	4d a1       	ldd	r20, Y+37	; 0x25
     e00:	5e a1       	ldd	r21, Y+38	; 0x26
     e02:	bc 01       	movw	r22, r24
     e04:	cd 01       	movw	r24, r26
     e06:	ce d1       	rcall	.+924    	; 0x11a4 <__udivmodsi4>
     e08:	da 01       	movw	r26, r20
     e0a:	c9 01       	movw	r24, r18
     e0c:	f8 01       	movw	r30, r16
     e0e:	80 83       	st	Z, r24
     e10:	91 83       	std	Z+1, r25	; 0x01
     e12:	a2 83       	std	Z+2, r26	; 0x02
     e14:	b3 83       	std	Z+3, r27	; 0x03

    //Array of task pointers...
    static task task1, task2, task3, task4, task5, task6, task7;
    task *tasks[] = {&task1, &task2, &task3, &task4, &task5, &task6, &task7};
     e16:	ce 01       	movw	r24, r28
     e18:	8b 5b       	subi	r24, 0xBB	; 187
     e1a:	9f 4f       	sbci	r25, 0xFF	; 255
     e1c:	2e e0       	ldi	r18, 0x0E	; 14
     e1e:	e7 e0       	ldi	r30, 0x07	; 7
     e20:	f1 e0       	ldi	r31, 0x01	; 1
     e22:	dc 01       	movw	r26, r24
     e24:	01 90       	ld	r0, Z+
     e26:	0d 92       	st	X+, r0
     e28:	2a 95       	dec	r18
     e2a:	e1 f7       	brne	.-8      	; 0xe24 <main+0x2c6>
    const unsigned short numTasks =
     e2c:	ce 01       	movw	r24, r28
     e2e:	8d 5b       	subi	r24, 0xBD	; 189
     e30:	9f 4f       	sbci	r25, 0xFF	; 255
     e32:	27 e0       	ldi	r18, 0x07	; 7
     e34:	30 e0       	ldi	r19, 0x00	; 0
     e36:	fc 01       	movw	r30, r24
     e38:	31 83       	std	Z+1, r19	; 0x01
     e3a:	20 83       	st	Z, r18
    sizeof(tasks)/sizeof(task*);
    
    //Initializing the task components
    task1.state = -1;
     e3c:	8f ef       	ldi	r24, 0xFF	; 255
     e3e:	9f ef       	ldi	r25, 0xFF	; 255
     e40:	90 93 2e 01 	sts	0x012E, r25
     e44:	80 93 2d 01 	sts	0x012D, r24
    task1.period = SMTick1_period;
     e48:	8f a1       	ldd	r24, Y+39	; 0x27
     e4a:	98 a5       	ldd	r25, Y+40	; 0x28
     e4c:	a9 a5       	ldd	r26, Y+41	; 0x29
     e4e:	ba a5       	ldd	r27, Y+42	; 0x2a
     e50:	80 93 2f 01 	sts	0x012F, r24
     e54:	90 93 30 01 	sts	0x0130, r25
     e58:	a0 93 31 01 	sts	0x0131, r26
     e5c:	b0 93 32 01 	sts	0x0132, r27
    task1.elapsedTime = SMTick1_period;
     e60:	8f a1       	ldd	r24, Y+39	; 0x27
     e62:	98 a5       	ldd	r25, Y+40	; 0x28
     e64:	a9 a5       	ldd	r26, Y+41	; 0x29
     e66:	ba a5       	ldd	r27, Y+42	; 0x2a
     e68:	80 93 33 01 	sts	0x0133, r24
     e6c:	90 93 34 01 	sts	0x0134, r25
     e70:	a0 93 35 01 	sts	0x0135, r26
     e74:	b0 93 36 01 	sts	0x0136, r27
    task1.TickFct = &SMTick1;
     e78:	8d ea       	ldi	r24, 0xAD	; 173
     e7a:	92 e0       	ldi	r25, 0x02	; 2
     e7c:	90 93 38 01 	sts	0x0138, r25
     e80:	80 93 37 01 	sts	0x0137, r24
    
    task2.state = -1;
     e84:	8f ef       	ldi	r24, 0xFF	; 255
     e86:	9f ef       	ldi	r25, 0xFF	; 255
     e88:	90 93 3a 01 	sts	0x013A, r25
     e8c:	80 93 39 01 	sts	0x0139, r24
    task2.period = SMTick2_period;
     e90:	8b a5       	ldd	r24, Y+43	; 0x2b
     e92:	9c a5       	ldd	r25, Y+44	; 0x2c
     e94:	ad a5       	ldd	r26, Y+45	; 0x2d
     e96:	be a5       	ldd	r27, Y+46	; 0x2e
     e98:	80 93 3b 01 	sts	0x013B, r24
     e9c:	90 93 3c 01 	sts	0x013C, r25
     ea0:	a0 93 3d 01 	sts	0x013D, r26
     ea4:	b0 93 3e 01 	sts	0x013E, r27
    task2.elapsedTime = SMTick2_period;
     ea8:	8b a5       	ldd	r24, Y+43	; 0x2b
     eaa:	9c a5       	ldd	r25, Y+44	; 0x2c
     eac:	ad a5       	ldd	r26, Y+45	; 0x2d
     eae:	be a5       	ldd	r27, Y+46	; 0x2e
     eb0:	80 93 3f 01 	sts	0x013F, r24
     eb4:	90 93 40 01 	sts	0x0140, r25
     eb8:	a0 93 41 01 	sts	0x0141, r26
     ebc:	b0 93 42 01 	sts	0x0142, r27
    task2.TickFct = &SMTick2;
     ec0:	8b ed       	ldi	r24, 0xDB	; 219
     ec2:	92 e0       	ldi	r25, 0x02	; 2
     ec4:	90 93 44 01 	sts	0x0144, r25
     ec8:	80 93 43 01 	sts	0x0143, r24
    
    task3.state = -1;
     ecc:	8f ef       	ldi	r24, 0xFF	; 255
     ece:	9f ef       	ldi	r25, 0xFF	; 255
     ed0:	90 93 46 01 	sts	0x0146, r25
     ed4:	80 93 45 01 	sts	0x0145, r24
    task3.period = SMTick3_period;
     ed8:	8f a5       	ldd	r24, Y+47	; 0x2f
     eda:	98 a9       	ldd	r25, Y+48	; 0x30
     edc:	a9 a9       	ldd	r26, Y+49	; 0x31
     ede:	ba a9       	ldd	r27, Y+50	; 0x32
     ee0:	80 93 47 01 	sts	0x0147, r24
     ee4:	90 93 48 01 	sts	0x0148, r25
     ee8:	a0 93 49 01 	sts	0x0149, r26
     eec:	b0 93 4a 01 	sts	0x014A, r27
    task3.elapsedTime = SMTick3_period;
     ef0:	8f a5       	ldd	r24, Y+47	; 0x2f
     ef2:	98 a9       	ldd	r25, Y+48	; 0x30
     ef4:	a9 a9       	ldd	r26, Y+49	; 0x31
     ef6:	ba a9       	ldd	r27, Y+50	; 0x32
     ef8:	80 93 4b 01 	sts	0x014B, r24
     efc:	90 93 4c 01 	sts	0x014C, r25
     f00:	a0 93 4d 01 	sts	0x014D, r26
     f04:	b0 93 4e 01 	sts	0x014E, r27
    task3.TickFct = &SMTick3;
     f08:	81 e1       	ldi	r24, 0x11	; 17
     f0a:	93 e0       	ldi	r25, 0x03	; 3
     f0c:	90 93 50 01 	sts	0x0150, r25
     f10:	80 93 4f 01 	sts	0x014F, r24
    
    task4.state = -1;
     f14:	8f ef       	ldi	r24, 0xFF	; 255
     f16:	9f ef       	ldi	r25, 0xFF	; 255
     f18:	90 93 52 01 	sts	0x0152, r25
     f1c:	80 93 51 01 	sts	0x0151, r24
    task4.period = SMTick4_period;
     f20:	8b a9       	ldd	r24, Y+51	; 0x33
     f22:	9c a9       	ldd	r25, Y+52	; 0x34
     f24:	ad a9       	ldd	r26, Y+53	; 0x35
     f26:	be a9       	ldd	r27, Y+54	; 0x36
     f28:	80 93 53 01 	sts	0x0153, r24
     f2c:	90 93 54 01 	sts	0x0154, r25
     f30:	a0 93 55 01 	sts	0x0155, r26
     f34:	b0 93 56 01 	sts	0x0156, r27
    task4.elapsedTime = SMTick4_period;
     f38:	8b a9       	ldd	r24, Y+51	; 0x33
     f3a:	9c a9       	ldd	r25, Y+52	; 0x34
     f3c:	ad a9       	ldd	r26, Y+53	; 0x35
     f3e:	be a9       	ldd	r27, Y+54	; 0x36
     f40:	80 93 57 01 	sts	0x0157, r24
     f44:	90 93 58 01 	sts	0x0158, r25
     f48:	a0 93 59 01 	sts	0x0159, r26
     f4c:	b0 93 5a 01 	sts	0x015A, r27
    task4.TickFct = &SMTick4;
     f50:	83 e9       	ldi	r24, 0x93	; 147
     f52:	93 e0       	ldi	r25, 0x03	; 3
     f54:	90 93 5c 01 	sts	0x015C, r25
     f58:	80 93 5b 01 	sts	0x015B, r24
    
    task5.state = -1;
     f5c:	8f ef       	ldi	r24, 0xFF	; 255
     f5e:	9f ef       	ldi	r25, 0xFF	; 255
     f60:	90 93 5e 01 	sts	0x015E, r25
     f64:	80 93 5d 01 	sts	0x015D, r24
    task5.period = SMTick5_period;
     f68:	8f a9       	ldd	r24, Y+55	; 0x37
     f6a:	98 ad       	ldd	r25, Y+56	; 0x38
     f6c:	a9 ad       	ldd	r26, Y+57	; 0x39
     f6e:	ba ad       	ldd	r27, Y+58	; 0x3a
     f70:	80 93 5f 01 	sts	0x015F, r24
     f74:	90 93 60 01 	sts	0x0160, r25
     f78:	a0 93 61 01 	sts	0x0161, r26
     f7c:	b0 93 62 01 	sts	0x0162, r27
    task5.elapsedTime = SMTick5_period;
     f80:	8f a9       	ldd	r24, Y+55	; 0x37
     f82:	98 ad       	ldd	r25, Y+56	; 0x38
     f84:	a9 ad       	ldd	r26, Y+57	; 0x39
     f86:	ba ad       	ldd	r27, Y+58	; 0x3a
     f88:	80 93 63 01 	sts	0x0163, r24
     f8c:	90 93 64 01 	sts	0x0164, r25
     f90:	a0 93 65 01 	sts	0x0165, r26
     f94:	b0 93 66 01 	sts	0x0166, r27
    task5.TickFct = &SMTick5;
     f98:	80 ef       	ldi	r24, 0xF0	; 240
     f9a:	93 e0       	ldi	r25, 0x03	; 3
     f9c:	90 93 68 01 	sts	0x0168, r25
     fa0:	80 93 67 01 	sts	0x0167, r24

    task6.state = -1;
     fa4:	8f ef       	ldi	r24, 0xFF	; 255
     fa6:	9f ef       	ldi	r25, 0xFF	; 255
     fa8:	90 93 6a 01 	sts	0x016A, r25
     fac:	80 93 69 01 	sts	0x0169, r24
    task6.period = SMTick6_period;
     fb0:	8b ad       	ldd	r24, Y+59	; 0x3b
     fb2:	9c ad       	ldd	r25, Y+60	; 0x3c
     fb4:	ad ad       	ldd	r26, Y+61	; 0x3d
     fb6:	be ad       	ldd	r27, Y+62	; 0x3e
     fb8:	80 93 6b 01 	sts	0x016B, r24
     fbc:	90 93 6c 01 	sts	0x016C, r25
     fc0:	a0 93 6d 01 	sts	0x016D, r26
     fc4:	b0 93 6e 01 	sts	0x016E, r27
    task6.elapsedTime = SMTick6_period;
     fc8:	8b ad       	ldd	r24, Y+59	; 0x3b
     fca:	9c ad       	ldd	r25, Y+60	; 0x3c
     fcc:	ad ad       	ldd	r26, Y+61	; 0x3d
     fce:	be ad       	ldd	r27, Y+62	; 0x3e
     fd0:	80 93 6f 01 	sts	0x016F, r24
     fd4:	90 93 70 01 	sts	0x0170, r25
     fd8:	a0 93 71 01 	sts	0x0171, r26
     fdc:	b0 93 72 01 	sts	0x0172, r27
    task6.TickFct = &SMTick6;
     fe0:	8d e4       	ldi	r24, 0x4D	; 77
     fe2:	94 e0       	ldi	r25, 0x04	; 4
     fe4:	90 93 74 01 	sts	0x0174, r25
     fe8:	80 93 73 01 	sts	0x0173, r24

    task7.state = -1;
     fec:	8f ef       	ldi	r24, 0xFF	; 255
     fee:	9f ef       	ldi	r25, 0xFF	; 255
     ff0:	90 93 76 01 	sts	0x0176, r25
     ff4:	80 93 75 01 	sts	0x0175, r24
    task7.period = SMTick7_period;
     ff8:	ce 01       	movw	r24, r28
     ffa:	cf 96       	adiw	r24, 0x3f	; 63
     ffc:	fc 01       	movw	r30, r24
     ffe:	80 81       	ld	r24, Z
    1000:	91 81       	ldd	r25, Z+1	; 0x01
    1002:	a2 81       	ldd	r26, Z+2	; 0x02
    1004:	b3 81       	ldd	r27, Z+3	; 0x03
    1006:	80 93 77 01 	sts	0x0177, r24
    100a:	90 93 78 01 	sts	0x0178, r25
    100e:	a0 93 79 01 	sts	0x0179, r26
    1012:	b0 93 7a 01 	sts	0x017A, r27
    task7.elapsedTime = SMTick7_period;
    1016:	ce 01       	movw	r24, r28
    1018:	cf 96       	adiw	r24, 0x3f	; 63
    101a:	fc 01       	movw	r30, r24
    101c:	80 81       	ld	r24, Z
    101e:	91 81       	ldd	r25, Z+1	; 0x01
    1020:	a2 81       	ldd	r26, Z+2	; 0x02
    1022:	b3 81       	ldd	r27, Z+3	; 0x03
    1024:	80 93 7b 01 	sts	0x017B, r24
    1028:	90 93 7c 01 	sts	0x017C, r25
    102c:	a0 93 7d 01 	sts	0x017D, r26
    1030:	b0 93 7e 01 	sts	0x017E, r27
    task7.TickFct = &SMTick7;
    1034:	88 e5       	ldi	r24, 0x58	; 88
    1036:	95 e0       	ldi	r25, 0x05	; 5
    1038:	90 93 80 01 	sts	0x0180, r25
    103c:	80 93 7f 01 	sts	0x017F, r24

    TimerSet(GCD);
    1040:	8b a1       	ldd	r24, Y+35	; 0x23
    1042:	9c a1       	ldd	r25, Y+36	; 0x24
    1044:	ad a1       	ldd	r26, Y+37	; 0x25
    1046:	be a1       	ldd	r27, Y+38	; 0x26
    1048:	bc 01       	movw	r22, r24
    104a:	cd 01       	movw	r24, r26
    104c:	7b d9       	rcall	.-3338   	; 0x344 <TimerSet>
    LCD_init();
    104e:	3d d8       	rcall	.-3974   	; 0xca <LCD_init>
    TimerOn();
    1050:	dd d8       	rcall	.-3654   	; 0x20c <TimerOn>
    unsigned short i;
    
    while(1){
        for(i = 0; i < numTasks; ++i){
    1052:	1a 82       	std	Y+2, r1	; 0x02
    1054:	19 82       	std	Y+1, r1	; 0x01
    1056:	92 c0       	rjmp	.+292    	; 0x117c <main+0x61e>
            if(tasks[i]->elapsedTime ==
    1058:	9e 01       	movw	r18, r28
    105a:	2b 5b       	subi	r18, 0xBB	; 187
    105c:	3f 4f       	sbci	r19, 0xFF	; 255
    105e:	89 81       	ldd	r24, Y+1	; 0x01
    1060:	9a 81       	ldd	r25, Y+2	; 0x02
    1062:	88 0f       	add	r24, r24
    1064:	99 1f       	adc	r25, r25
    1066:	82 0f       	add	r24, r18
    1068:	93 1f       	adc	r25, r19
    106a:	fc 01       	movw	r30, r24
    106c:	80 81       	ld	r24, Z
    106e:	91 81       	ldd	r25, Z+1	; 0x01
    1070:	fc 01       	movw	r30, r24
    1072:	26 81       	ldd	r18, Z+6	; 0x06
    1074:	37 81       	ldd	r19, Z+7	; 0x07
    1076:	40 85       	ldd	r20, Z+8	; 0x08
    1078:	51 85       	ldd	r21, Z+9	; 0x09
               tasks[i]->period){
    107a:	be 01       	movw	r22, r28
    107c:	6b 5b       	subi	r22, 0xBB	; 187
    107e:	7f 4f       	sbci	r23, 0xFF	; 255
    1080:	89 81       	ldd	r24, Y+1	; 0x01
    1082:	9a 81       	ldd	r25, Y+2	; 0x02
    1084:	88 0f       	add	r24, r24
    1086:	99 1f       	adc	r25, r25
    1088:	86 0f       	add	r24, r22
    108a:	97 1f       	adc	r25, r23
    108c:	fc 01       	movw	r30, r24
    108e:	80 81       	ld	r24, Z
    1090:	91 81       	ldd	r25, Z+1	; 0x01
    1092:	fc 01       	movw	r30, r24
    1094:	82 81       	ldd	r24, Z+2	; 0x02
    1096:	93 81       	ldd	r25, Z+3	; 0x03
    1098:	a4 81       	ldd	r26, Z+4	; 0x04
    109a:	b5 81       	ldd	r27, Z+5	; 0x05
    TimerOn();
    unsigned short i;
    
    while(1){
        for(i = 0; i < numTasks; ++i){
            if(tasks[i]->elapsedTime ==
    109c:	28 17       	cp	r18, r24
    109e:	39 07       	cpc	r19, r25
    10a0:	4a 07       	cpc	r20, r26
    10a2:	5b 07       	cpc	r21, r27
    10a4:	09 f0       	breq	.+2      	; 0x10a8 <main+0x54a>
    10a6:	40 c0       	rjmp	.+128    	; 0x1128 <main+0x5ca>
               tasks[i]->period){
                   tasks[i]->state = 
    10a8:	9e 01       	movw	r18, r28
    10aa:	2b 5b       	subi	r18, 0xBB	; 187
    10ac:	3f 4f       	sbci	r19, 0xFF	; 255
    10ae:	89 81       	ldd	r24, Y+1	; 0x01
    10b0:	9a 81       	ldd	r25, Y+2	; 0x02
    10b2:	88 0f       	add	r24, r24
    10b4:	99 1f       	adc	r25, r25
    10b6:	82 0f       	add	r24, r18
    10b8:	93 1f       	adc	r25, r19
    10ba:	fc 01       	movw	r30, r24
    10bc:	00 81       	ld	r16, Z
    10be:	11 81       	ldd	r17, Z+1	; 0x01
                        tasks[i]->TickFct(tasks[i]->state);
    10c0:	9e 01       	movw	r18, r28
    10c2:	2b 5b       	subi	r18, 0xBB	; 187
    10c4:	3f 4f       	sbci	r19, 0xFF	; 255
    10c6:	89 81       	ldd	r24, Y+1	; 0x01
    10c8:	9a 81       	ldd	r25, Y+2	; 0x02
    10ca:	88 0f       	add	r24, r24
    10cc:	99 1f       	adc	r25, r25
    10ce:	82 0f       	add	r24, r18
    10d0:	93 1f       	adc	r25, r19
    10d2:	fc 01       	movw	r30, r24
    10d4:	80 81       	ld	r24, Z
    10d6:	91 81       	ldd	r25, Z+1	; 0x01
    10d8:	fc 01       	movw	r30, r24
    10da:	22 85       	ldd	r18, Z+10	; 0x0a
    10dc:	33 85       	ldd	r19, Z+11	; 0x0b
    10de:	ae 01       	movw	r20, r28
    10e0:	4b 5b       	subi	r20, 0xBB	; 187
    10e2:	5f 4f       	sbci	r21, 0xFF	; 255
    10e4:	89 81       	ldd	r24, Y+1	; 0x01
    10e6:	9a 81       	ldd	r25, Y+2	; 0x02
    10e8:	88 0f       	add	r24, r24
    10ea:	99 1f       	adc	r25, r25
    10ec:	84 0f       	add	r24, r20
    10ee:	95 1f       	adc	r25, r21
    10f0:	fc 01       	movw	r30, r24
    10f2:	80 81       	ld	r24, Z
    10f4:	91 81       	ldd	r25, Z+1	; 0x01
    10f6:	fc 01       	movw	r30, r24
    10f8:	80 81       	ld	r24, Z
    10fa:	91 81       	ldd	r25, Z+1	; 0x01
    10fc:	f9 01       	movw	r30, r18
    10fe:	09 95       	icall
    
    while(1){
        for(i = 0; i < numTasks; ++i){
            if(tasks[i]->elapsedTime ==
               tasks[i]->period){
                   tasks[i]->state = 
    1100:	f8 01       	movw	r30, r16
    1102:	91 83       	std	Z+1, r25	; 0x01
    1104:	80 83       	st	Z, r24
                        tasks[i]->TickFct(tasks[i]->state);
                   tasks[i]->elapsedTime = 0;
    1106:	9e 01       	movw	r18, r28
    1108:	2b 5b       	subi	r18, 0xBB	; 187
    110a:	3f 4f       	sbci	r19, 0xFF	; 255
    110c:	89 81       	ldd	r24, Y+1	; 0x01
    110e:	9a 81       	ldd	r25, Y+2	; 0x02
    1110:	88 0f       	add	r24, r24
    1112:	99 1f       	adc	r25, r25
    1114:	82 0f       	add	r24, r18
    1116:	93 1f       	adc	r25, r19
    1118:	fc 01       	movw	r30, r24
    111a:	80 81       	ld	r24, Z
    111c:	91 81       	ldd	r25, Z+1	; 0x01
    111e:	fc 01       	movw	r30, r24
    1120:	16 82       	std	Z+6, r1	; 0x06
    1122:	17 82       	std	Z+7, r1	; 0x07
    1124:	10 86       	std	Z+8, r1	; 0x08
    1126:	11 86       	std	Z+9, r1	; 0x09
              }
               tasks[i]->elapsedTime += 1;
    1128:	9e 01       	movw	r18, r28
    112a:	2b 5b       	subi	r18, 0xBB	; 187
    112c:	3f 4f       	sbci	r19, 0xFF	; 255
    112e:	89 81       	ldd	r24, Y+1	; 0x01
    1130:	9a 81       	ldd	r25, Y+2	; 0x02
    1132:	88 0f       	add	r24, r24
    1134:	99 1f       	adc	r25, r25
    1136:	82 0f       	add	r24, r18
    1138:	93 1f       	adc	r25, r19
    113a:	fc 01       	movw	r30, r24
    113c:	20 81       	ld	r18, Z
    113e:	31 81       	ldd	r19, Z+1	; 0x01
    1140:	ae 01       	movw	r20, r28
    1142:	4b 5b       	subi	r20, 0xBB	; 187
    1144:	5f 4f       	sbci	r21, 0xFF	; 255
    1146:	89 81       	ldd	r24, Y+1	; 0x01
    1148:	9a 81       	ldd	r25, Y+2	; 0x02
    114a:	88 0f       	add	r24, r24
    114c:	99 1f       	adc	r25, r25
    114e:	84 0f       	add	r24, r20
    1150:	95 1f       	adc	r25, r21
    1152:	fc 01       	movw	r30, r24
    1154:	80 81       	ld	r24, Z
    1156:	91 81       	ldd	r25, Z+1	; 0x01
    1158:	fc 01       	movw	r30, r24
    115a:	86 81       	ldd	r24, Z+6	; 0x06
    115c:	97 81       	ldd	r25, Z+7	; 0x07
    115e:	a0 85       	ldd	r26, Z+8	; 0x08
    1160:	b1 85       	ldd	r27, Z+9	; 0x09
    1162:	01 96       	adiw	r24, 0x01	; 1
    1164:	a1 1d       	adc	r26, r1
    1166:	b1 1d       	adc	r27, r1
    1168:	f9 01       	movw	r30, r18
    116a:	86 83       	std	Z+6, r24	; 0x06
    116c:	97 83       	std	Z+7, r25	; 0x07
    116e:	a0 87       	std	Z+8, r26	; 0x08
    1170:	b1 87       	std	Z+9, r27	; 0x09
    LCD_init();
    TimerOn();
    unsigned short i;
    
    while(1){
        for(i = 0; i < numTasks; ++i){
    1172:	89 81       	ldd	r24, Y+1	; 0x01
    1174:	9a 81       	ldd	r25, Y+2	; 0x02
    1176:	01 96       	adiw	r24, 0x01	; 1
    1178:	9a 83       	std	Y+2, r25	; 0x02
    117a:	89 83       	std	Y+1, r24	; 0x01
    117c:	ce 01       	movw	r24, r28
    117e:	8d 5b       	subi	r24, 0xBD	; 189
    1180:	9f 4f       	sbci	r25, 0xFF	; 255
    1182:	29 81       	ldd	r18, Y+1	; 0x01
    1184:	3a 81       	ldd	r19, Y+2	; 0x02
    1186:	fc 01       	movw	r30, r24
    1188:	80 81       	ld	r24, Z
    118a:	91 81       	ldd	r25, Z+1	; 0x01
    118c:	28 17       	cp	r18, r24
    118e:	39 07       	cpc	r19, r25
    1190:	08 f4       	brcc	.+2      	; 0x1194 <main+0x636>
    1192:	62 cf       	rjmp	.-316    	; 0x1058 <main+0x4fa>
                        tasks[i]->TickFct(tasks[i]->state);
                   tasks[i]->elapsedTime = 0;
              }
               tasks[i]->elapsedTime += 1;
        }
         while(!TimerFlag);
    1194:	00 00       	nop
    1196:	80 91 16 01 	lds	r24, 0x0116
    119a:	88 23       	and	r24, r24
    119c:	e1 f3       	breq	.-8      	; 0x1196 <main+0x638>
        TimerFlag = 0;
    119e:	10 92 16 01 	sts	0x0116, r1
    }
    11a2:	57 cf       	rjmp	.-338    	; 0x1052 <main+0x4f4>

000011a4 <__udivmodsi4>:
    11a4:	a1 e2       	ldi	r26, 0x21	; 33
    11a6:	1a 2e       	mov	r1, r26
    11a8:	aa 1b       	sub	r26, r26
    11aa:	bb 1b       	sub	r27, r27
    11ac:	fd 01       	movw	r30, r26
    11ae:	0d c0       	rjmp	.+26     	; 0x11ca <__udivmodsi4_ep>

000011b0 <__udivmodsi4_loop>:
    11b0:	aa 1f       	adc	r26, r26
    11b2:	bb 1f       	adc	r27, r27
    11b4:	ee 1f       	adc	r30, r30
    11b6:	ff 1f       	adc	r31, r31
    11b8:	a2 17       	cp	r26, r18
    11ba:	b3 07       	cpc	r27, r19
    11bc:	e4 07       	cpc	r30, r20
    11be:	f5 07       	cpc	r31, r21
    11c0:	20 f0       	brcs	.+8      	; 0x11ca <__udivmodsi4_ep>
    11c2:	a2 1b       	sub	r26, r18
    11c4:	b3 0b       	sbc	r27, r19
    11c6:	e4 0b       	sbc	r30, r20
    11c8:	f5 0b       	sbc	r31, r21

000011ca <__udivmodsi4_ep>:
    11ca:	66 1f       	adc	r22, r22
    11cc:	77 1f       	adc	r23, r23
    11ce:	88 1f       	adc	r24, r24
    11d0:	99 1f       	adc	r25, r25
    11d2:	1a 94       	dec	r1
    11d4:	69 f7       	brne	.-38     	; 0x11b0 <__udivmodsi4_loop>
    11d6:	60 95       	com	r22
    11d8:	70 95       	com	r23
    11da:	80 95       	com	r24
    11dc:	90 95       	com	r25
    11de:	9b 01       	movw	r18, r22
    11e0:	ac 01       	movw	r20, r24
    11e2:	bd 01       	movw	r22, r26
    11e4:	cf 01       	movw	r24, r30
    11e6:	08 95       	ret

000011e8 <_exit>:
    11e8:	f8 94       	cli

000011ea <__stop_program>:
    11ea:	ff cf       	rjmp	.-2      	; 0x11ea <__stop_program>
